(dp1
S'cartaz'
p2
(dp3
S'verbetes'
p4
(dp5
S'novo'
p6
I48
sS'ps'
p7
I27
sS'slogan'
p8
I0
sS'votos'
p9
I0
ssS'total_occurences'
p10
I3654
sS'official_name'
p11
g2
ssS'expresso'
p12
(dp13
g4
(dp14
S'an\xc3\xadbal cavaco silva'
p15
I1
sS'portugal'
p16
I95
sS'provas'
p17
I1
sS'rep\xc3\xbablica'
p18
I6
sS'nicolau santos'
p19
I18
sS'presidente'
p20
I9
ssg10
I3975
sg11
g12
ssS'portugal'
p21
(dp22
g4
(dp23
S'an\xc3\xadbal cavaco silva'
p24
I0
sS'acordo'
p25
I1586
sS'expresso'
p26
I95
sS'provas'
p27
I117
sS'rep\xc3\xbablica'
p28
I742
sS'extradi\xc3\xa7\xc3\xa3o'
p29
I116
sS'oeiras'
p30
I118
sS'nicolau santos'
p31
I14
sS'isaltino'
p32
I14
sS'presidente'
p33
I3650
ssg10
I277803
sg11
g21
ssS'provas'
p34
(dp35
g4
(dp36
S'an\xc3\xadbal cavaco silva'
p37
I0
sS'expresso'
p38
I1
sS'portugal'
p39
I117
sS'rep\xc3\xbablica'
p40
I6
sS'nicolau santos'
p41
I0
sS'presidente'
p42
I14
ssg10
I4525
sg11
g34
ssS'presidente'
p43
(dp44
g4
(dp45
S'an\xc3\xadbal cavaco silva'
p46
I12
sS'expresso'
p47
I9
sS'portugal'
p48
I3650
sS'provas'
p49
I14
sS'rep\xc3\xbablica'
p50
I6176
sS'nicolau santos'
p51
I1
ssg10
I92063
sg11
g43
ssg6
(dp52
g4
(dp53
S'slogan'
p54
I9
sg2
I48
sS'votos'
p55
I141
sS'ps'
p56
I1427
ssg10
I124410
sg11
g6
ssg56
(dp57
g4
(dp58
S'novo'
p59
I1427
sS'cartaz'
p60
I27
sS'slogan'
p61
I11
sS'votos'
p62
I968
ssg10
I81385
sg11
g56
ssS'acordo'
p63
(dp64
g4
(dp65
S'oeiras'
p66
I5
sS'portugal'
p67
I1586
sS'extradi\xc3\xa7\xc3\xa3o'
p68
I25
sS'isaltino'
p69
I2
ssg10
I41716
sg11
g63
ssg55
(dp70
g4
(dp71
S'novo'
p72
I141
sS'cartaz'
p73
I0
sS'slogan'
p74
I0
sS'ps'
p75
I968
ssg10
I7294
sg11
g55
ssS'isaltino'
p76
(dp77
g4
(dp78
g63
I2
sS'oeiras'
p79
I285
sg21
I14
sS'extradi\xc3\xa7\xc3\xa3o'
p80
I0
ssg10
I1686
sg11
g76
ssS'an\xc3\xadbal cavaco silva'
p81
(dp82
g4
(dp83
S'expresso'
p84
I1
sS'portugal'
p85
I0
sS'provas'
p86
I0
sS'rep\xc3\xbablica'
p87
I9
sS'nicolau santos'
p88
I0
sS'presidente'
p89
I12
ssg10
I45
sg11
g81
ssS'taxas'
p90
(dp91
g4
(dp92
S'liberta\xc3\xa7\xc3\xa3o'
p93
I0
sS'derrapagens'
p94
I0
sS'impostos'
p95
I135
sS'coimas'
p96
I20
sS'dia'
p97
I197
ssg10
I15572
sg11
g90
ssg79
(dp98
g4
(dp99
S'acordo'
p100
I5
sS'portugal'
p101
I118
sS'extradi\xc3\xa7\xc3\xa3o'
p102
I0
sg76
I285
ssg10
I4022
sg11
g79
ssg54
(dp103
g4
(dp104
S'novo'
p105
I9
sS'cartaz'
p106
I0
sS'votos'
p107
I0
sS'ps'
p108
I11
ssg10
I117
sg11
g54
ssS'derrapagens'
p109
(dp110
g4
(dp111
S'liberta\xc3\xa7\xc3\xa3o'
p112
I0
sS'impostos'
p113
I1
sS'coimas'
p114
I0
sS'dia'
p115
I0
sS'taxas'
p116
I0
ssg10
I171
sg11
g109
ssS'impostos'
p117
(dp118
g4
(dp119
S'liberta\xc3\xa7\xc3\xa3o'
p120
I19
sS'derrapagens'
p121
I1
sS'coimas'
p122
I1
sS'taxas'
p123
I135
sS'dia'
p124
I75
ssg10
I12435
sg11
g117
ssS'dia'
p125
(dp126
g4
(dp127
S'liberta\xc3\xa7\xc3\xa3o'
p128
I75
sg109
I0
sg117
I75
sg90
I197
sS'coimas'
p129
I1
ssg10
I90565
sg11
g125
ssg80
(dp130
g4
(dp131
S'acordo'
p132
I25
sS'oeiras'
p133
I0
sS'portugal'
p134
I116
sS'isaltino'
p135
I0
ssg10
I1631
sg11
g80
ssg128
(dp136
g4
(dp137
S'coimas'
p138
I0
sS'derrapagens'
p139
I0
sS'impostos'
p140
I19
sS'taxas'
p141
I0
sg125
I75
ssg10
I3683
sg11
g128
ssS'rep\xc3\xbablica'
p142
(dp143
g4
(dp144
S'an\xc3\xadbal cavaco silva'
p145
I9
sS'expresso'
p146
I6
sS'portugal'
p147
I742
sS'provas'
p148
I6
sS'nicolau santos'
p149
I0
sS'presidente'
p150
I6176
ssg10
I19334
sg11
g142
ssg88
(dp151
g4
(dp152
g81
I0
sg12
I18
sS'portugal'
p153
I14
sg34
I0
sg142
I0
sg43
I1
ssg10
I259
sg11
g88
ssg129
(dp154
g4
(dp155
S'liberta\xc3\xa7\xc3\xa3o'
p156
I0
sS'derrapagens'
p157
I0
sS'impostos'
p158
I1
sS'taxas'
p159
I20
sS'dia'
p160
I1
ssg10
I812
sg11
g129
ss.