(dp1
S'carlos mata'
p2
(dp3
S'verbetes'
p4
(dp5
S'ant\xc3\xb3nio almeida henriques'
p6
I0
ssS'total_occurences'
p7
I52
sS'official_name'
p8
g2
ssS'arm\xc3\xa9nio carlos'
p9
(dp10
g4
(dp11
S'jorge jesus'
p12
I0
sS'abebe selassie'
p13
I0
sS'jo\xc3\xa3o soares'
p14
I1
ssg7
I1213
sg8
g9
ssS'nuno melo'
p15
(dp16
g4
(dp17
S'paulo portas'
p18
I23
sS'vitor const\xc3\xa2ncio'
p19
I7
sS'parlamento europeu'
p20
I17
ssg7
I914
sg8
g15
ssS'jos\xc3\xa9 rodrigues'
p21
(dp22
g4
(dp23
S'ant\xc3\xb3nio costa'
p24
I3
sS'alexandre quintanilha'
p25
I2
ssg7
I551
sg8
g21
ssS'j\xc3\xbalia pinheiro'
p26
(dp27
g4
(dp28
S'teresa guilherme'
p29
I8
sS'jo\xc3\xa3o ferreira'
p30
I0
ssg7
I194
sg8
g26
ssS'rafa ben\xc3\xadtez'
p31
(dp32
g4
(dp33
S'pedro passos coelho'
p34
I0
sS'bruno alves'
p35
I0
sS'cristiano ronaldo'
p36
I10
ssg7
I356
sg8
g31
ssS'concei\xc3\xa7\xc3\xa3o lino'
p37
(dp38
g4
(dp39
S'f\xc3\xa1tima lopes'
p40
I0
ssg7
I14
sg8
g37
ssS'lorenzo carvalho'
p41
(dp42
g4
(dp43
S'judite sousa'
p44
I6
ssg7
I13
sg8
g41
ssS'paulo penedos'
p45
(dp46
g4
(dp47
S'david luiz'
p48
I0
ssg7
I319
sg8
g45
ssg6
(dp49
g4
(dp50
g2
I0
ssg7
I11
sg8
g6
ssS'paulo teixeira'
p51
(dp52
g4
(dp53
S'francisco lou\xc3\xa7\xc3\xa3'
p54
I2
ssg7
I134
sg8
g51
ssS'ant\xc3\xb3nio soares carneiro'
p55
(dp56
g4
(dp57
S's\xc3\xa1 carneiro'
p58
I0
ssg7
I0
sg8
g55
ssS'judite sousa'
p59
(dp60
g4
(dp61
S'pedro passos coelho'
p62
I0
sg41
I6
sS'fernando seara'
p63
I2
sS'paulo baldaia'
p64
I0
ssg7
I345
sg8
g59
ssS'mick jagger'
p65
(dp66
g4
(dp67
S'ant\xc3\xb3nio costa'
p68
I0
ssg7
I348
sg8
g65
ssS'raul castro'
p69
(dp70
g4
(dp71
S'jorge jesus'
p72
I0
ssg7
I708
sg8
g69
ssS's\xc3\xa3o jorge'
p73
(dp74
g4
(dp75
S'an\xc3\xadbal cavaco silva'
p76
I0
ssg7
I1540
sg8
g73
ssS'carlos costa'
p77
(dp78
g4
(dp79
S'joseph blatter'
p80
I0
ssg7
I2865
sg8
g77
ssS'medina carreira'
p81
(dp82
g4
(dp83
S'pedro passos coelho'
p84
I0
ssg7
I251
sg8
g81
ssS'maxi pereira'
p85
(dp86
g4
(dp87
S'jorge jesus'
p88
I11
sS'stephen hawking'
p89
I0
sS'rui gomes'
p90
I2
ssg7
I1523
sg8
g85
ssS'jos\xc3\xa9 s\xc3\xa1 fernandes'
p91
(dp92
g4
(dp93
S'cunha rodrigues'
p94
I0
sS'eduardo souto de moura'
p95
I0
ssg7
I46
sg8
g91
ssS's\xc3\xb3nia tavares'
p96
(dp97
g4
(dp98
S'bruno carvalho'
p99
I0
ssg7
I137
sg8
g96
ssS'iker casillas'
p100
(dp101
g4
(dp102
S'pedro passos coelho'
p103
I0
sS'angela merkel'
p104
I0
sS'sara carbonero'
p105
I60
ssg7
I498
sg8
g100
ssS'agostinho almeida santos'
p106
(dp107
g4
(dp108
S'm\xc3\xa1rio soares'
p109
I0
sS'ant\xc3\xb3nio marinho pinto'
p110
I0
sS'manuel alegre'
p111
I0
ssg7
I10
sg8
g106
ssS'mariana mort\xc3\xa1gua'
p112
(dp113
g4
(dp114
S'ricardo salgado'
p115
I3
ssg7
I129
sg8
g112
ssS'eduardo souto de moura'
p116
(dp117
g4
(dp118
S'cunha rodrigues'
p119
I0
sS'jos\xc3\xa9 s\xc3\xa1 fernandes'
p120
I0
ssg7
I53
sg8
g116
ssS'francisco assis'
p121
(dp122
g4
(dp123
S'paulo rangel'
p124
I5
sS'ant\xc3\xb3nio costa'
p125
I21
sS'parlamento europeu'
p126
I19
ssg7
I1088
sg8
g121
ssS'gordon brown'
p127
(dp128
g4
(dp129
S'scotland yard'
p130
I2
ssg7
I177
sg8
g127
ssS'gangnam style'
p131
(dp132
g4
(dp133
S'ravi shankar'
p134
I0
ssg7
I218
sg8
g131
ssS'rui alves'
p135
(dp136
g4
(dp137
S'fernando seara'
p138
I8
ssg7
I583
sg8
g135
ssS'nuno rogeiro'
p139
(dp140
g4
(dp141
S'margaret thatcher'
p142
I0
sS'cl\xc3\xa1udio ramos'
p143
I0
ssg7
I50
sg8
g139
ssS'carlos moedas'
p144
(dp145
g4
(dp146
S'pedro passos coelho'
p147
I0
sS'paulo portas'
p148
I0
sS'maria lu\xc3\xads albuquerque'
p149
I5
sS'v\xc3\xadtor gaspar'
p150
I10
ssg7
I1110
sg8
g144
ssS'f\xc3\xa1tima campos'
p151
(dp152
g4
(dp153
S'ant\xc3\xb3nio costa'
p154
I0
sS'jos\xc3\xa9 lello'
p155
I0
ssg7
I16
sg8
g151
ssS'paulo bento'
p156
(dp157
g4
(dp158
S'an\xc3\xadbal cavaco silva'
p159
I0
sS'pedro passos coelho'
p160
I0
sS'v\xc3\xadtor pereira'
p161
I8
sS'rui patr\xc3\xadcio'
p162
I25
sS'abebe selassie'
p163
I0
sS'manuela moura guedes'
p164
I0
sS'ant\xc3\xb3nio costa'
p165
I1
sS'cristiano ronaldo'
p166
I163
ssg7
I8264
sg8
g156
ssS'cristina ferreira'
p167
(dp168
g4
(dp169
S'jos\xc3\xa9 s\xc3\xb3crates'
p170
I0
sS'miguel relvas'
p171
I0
sS'maria lu\xc3\xads albuquerque'
p172
I0
ssg7
I401
sg8
g167
ssS'ant\xc3\xb3nio borges'
p173
(dp174
g4
(dp175
S'pedro passos coelho'
p176
I1
sS'wolfgang schauble'
p177
I0
sS'jer\xc3\xb3nimo sousa'
p178
I3
sS'ricardo salgado'
p179
I0
sS'v\xc3\xadtor gaspar'
p180
I9
ssg7
I958
sg8
g173
ssS'whitney houston'
p181
(dp182
g4
(dp183
S'domingos paci\xc3\xaancia'
p184
I1
sS'osama bin laden'
p185
I2
ssg7
I474
sg8
g181
ssS'paula teixeira'
p186
(dp187
g4
(dp188
S'lu\xc3\xads filipe'
p189
I0
ssg7
I373
sg8
g186
ssS'carlos mendes'
p190
(dp191
g4
(dp192
S'fernando tordo'
p193
I31
ssg7
I186
sg8
g190
ssS'philip seymour hoffman'
p194
(dp195
g4
(dp196
S'pedro passos coelho'
p197
I0
ssg7
I100
sg8
g194
ssS'lionel messi'
p198
(dp199
g4
(dp200
S'v\xc3\xadtor gaspar'
p201
I0
sS'cristiano ronaldo'
p202
I59
ssg7
I581
sg8
g198
ssS'jos\xc3\xa9 s\xc3\xb3crates'
p203
(dp204
g4
(dp205
S'an\xc3\xadbal cavaco silva'
p206
I0
sS'pedro passos coelho'
p207
I16
sS'paulo portas'
p208
I28
sS'rui rangel'
p209
I0
sS'paul krugman'
p210
I0
sS'm\xc3\xa1rio soares'
p211
I44
sS'armando vara'
p212
I8
sS'lu\xc3\xads amado'
p213
I5
sS'carlos alexandre'
p214
I12
sS'fernando pinto monteiro'
p215
I0
sS'domingos paci\xc3\xaancia'
p216
I0
sS'artur santos silva'
p217
I0
sS'miguel relvas'
p218
I14
sS'noronha do nascimento'
p219
I0
sS'lu\xc3\xads bernardo'
p220
I0
sg167
I0
sS'ant\xc3\xb3nio braga'
p221
I1
sS'ant\xc3\xb3nio costa'
p222
I50
sS'miguel sousa'
p223
I1
sS'pedro silva pereira'
p224
I5
ssg7
I4056
sg8
g203
ssS'afonso albuquerque'
p225
(dp226
g4
(dp227
S'paulo portas'
p228
I0
ssg7
I68
sg8
g225
ssS'francisco pinto balsem\xc3\xa3o'
p229
(dp230
g4
(dp231
S'ricardo costa'
p232
I1
sS'vicente jorge silva'
p233
I0
ssg7
I93
sg8
g229
ssS'an\xc3\xadbal cavaco silva'
p234
(dp235
g4
(dp236
S'm\xc3\xa1rio soares'
p237
I0
sS'jer\xc3\xb3nimo sousa'
p238
I0
sS'teodoro obiang nguema'
p239
I0
sS'wolfgang schauble'
p240
I0
sS'rita pereira'
p241
I0
sS'alberto jo\xc3\xa3o jardim'
p242
I0
sS'gon\xc3\xa7alo amaral'
p243
I0
sS'marcelo rebelo'
p244
I0
sS'catarina martins'
p245
I0
sS'paulo bento'
p246
I0
sS'dias loureiro'
p247
I0
sS'angela merkel'
p248
I0
sS'manuel alegre'
p249
I0
sS'eduardo pereira'
p250
I0
sS'v\xc3\xadtor s\xc3\xa3o bento'
p251
I0
sS'jorge mendes'
p252
I0
sS'daniel oliveira'
p253
I0
sS'jos\xc3\xa9 s\xc3\xb3crates'
p254
I0
sS'jorge sampaio'
p255
I0
sS'cristiano ronaldo'
p256
I0
sg73
I0
sS'pires lima'
p257
I0
sS'nicolau santos'
p258
I0
sS'pedro passos coelho'
p259
I0
sS'paulo portas'
p260
I0
sS'michelle brito'
p261
I0
sS'mac\xc3\xa1rio correia'
p262
I0
sS'd. manuel clemente'
p263
I0
sS'maria lu\xc3\xads albuquerque'
p264
I0
sS'jos\xc3\xa9 saramago'
p265
I0
sS'joana vasconcelos'
p266
I0
sS'francisco lou\xc3\xa7\xc3\xa3'
p267
I0
sS'barack obama'
p268
I0
sS'raul meireles'
p269
I0
sS'assun\xc3\xa7\xc3\xa3o esteves'
p270
I0
sS'ant\xc3\xb3nio costa'
p271
I0
sS'carlos c\xc3\xa9sar'
p272
I0
sS'lu\xc3\xads filipe'
p273
I0
sS'oliveira costa'
p274
I0
sS'papa francisco'
p275
I0
sS'fernando nobre'
p276
I0
sS'duarte pio'
p277
I0
sS'franquelim alves'
p278
I0
sS'nelson mandela'
p279
I1
sS'edite estrela'
p280
I0
sS'dur\xc3\xa3o barroso'
p281
I0
sS'jo\xc3\xa3o galamba'
p282
I0
sS'francisco lopes'
p283
I0
sS'rui gomes'
p284
I0
sS'paulo futre'
p285
I0
ssg7
I45
sg8
g234
ssS'manuel ferreira leite'
p286
(dp287
g4
(dp288
S'pedro passos coelho'
p289
I0
sS'mota amaral'
p290
I0
sS'paulo mota'
p291
I0
sS'jos\xc3\xa9 pacheco pereira'
p292
I0
ssg7
I8
sg8
g286
ssS'bruno carvalho'
p293
(dp294
g4
(dp295
g96
I0
sS'costa lu\xc3\xads'
p296
I3
sS'rui patr\xc3\xadcio'
p297
I35
sS'maria lu\xc3\xads albuquerque'
p298
I0
sS'lu\xc3\xads filipe vieira'
p299
I62
sS'lu\xc3\xads godinho lopes'
p300
I0
sS'marco silva'
p301
I188
sS'jorge jesus'
p302
I84
sS'jos\xc3\xa9 couceiro'
p303
I18
sS'fernando ruas'
p304
I2
sS'dur\xc3\xa3o barroso'
p305
I16
sS'carlos severino'
p306
I16
sS'ant\xc3\xb3nio costa'
p307
I3
sS'pires lima'
p308
I4
ssg7
I7412
sg8
g293
ssS'mariano rajoy'
p309
(dp310
g4
(dp311
S'pedro passos coelho'
p312
I0
ssg7
I762
sg8
g309
ssS'jorge silva carvalho'
p313
(dp314
g4
(dp315
S'isabel santos'
p316
I0
sS'miguel relvas'
p317
I4
ssg7
I116
sg8
g313
ssS'jos\xc3\xa9 sousa cintra'
p318
(dp319
g4
(dp320
S'mark knopfler'
p321
I0
ssg7
I1
sg8
g318
ssS'lu\xc3\xads mira amaral'
p322
(dp323
g4
(dp324
S'rui machete'
p325
I0
ssg7
I2
sg8
g322
ssS'cl\xc3\xa1udia vieira'
p326
(dp327
g4
(dp328
S'v\xc3\xadtor gaspar'
p329
I0
ssg7
I472
sg8
g326
ssS'robert rodriguez'
p330
(dp331
g4
(dp332
S'neg\xc3\xb3cios estrangeiros'
p333
I0
ssg7
I7
sg8
g330
ssS'ant\xc3\xb3nio lobo xavier'
p334
(dp335
g4
(dp336
S'paulo portas'
p337
I0
sS'ant\xc3\xb3nio costa'
p338
I2
ssg7
I83
sg8
g334
ssg48
(dp339
g4
(dp340
S'carlos queiroz'
p341
I0
sS'manchester united'
p342
I5
sS'lu\xc3\xads filipe'
p343
I5
sg45
I0
ssg7
I2258
sg8
g48
ssS'v\xc3\xadtor bento'
p344
(dp345
g4
(dp346
S'ricardo salgado'
p347
I6
sS'nuno esp\xc3\xadrito santo'
p348
I0
ssg7
I1343
sg8
g344
ssS'ant\xc3\xb3nio vieira'
p349
(dp350
g4
(dp351
S'impulso jovem'
p352
I0
ssg7
I262
sg8
g349
ssS'xi jinping'
p353
(dp354
g4
(dp355
S'm\xc3\xa1rio soares'
p356
I0
ssg7
I333
sg8
g353
ssg239
(dp357
g4
(dp358
S'an\xc3\xadbal cavaco silva'
p359
I0
sS'jos\xc3\xa9 saramago'
p360
I0
ssg7
I8
sg8
g239
ssS's\xc3\xa9rgio sousa pinto'
p361
(dp362
g4
(dp363
S'ana catarina'
p364
I0
ssg7
I88
sg8
g361
ssS'carlos queiroz'
p365
(dp366
g4
(dp367
S'manchester united'
p368
I6
sS'lu\xc3\xads filipe'
p369
I3
sS'david luiz'
p370
I0
ssg7
I1722
sg8
g365
ssg265
(dp371
g4
(dp372
S'an\xc3\xadbal cavaco silva'
p373
I0
sS'teodoro obiang nguema'
p374
I0
ssg7
I843
sg8
g265
ssS'alvaro pereira'
p375
(dp376
g4
(dp377
S'pedro passos coelho'
p378
I1
sS'v\xc3\xadtor gaspar'
p379
I15
sS'paulo portas'
p380
I4
ssg7
I1938
sg8
g375
ssS'woody allen'
p381
(dp382
g4
(dp383
S'ant\xc3\xb3nio costa'
p384
I5
ssg7
I335
sg8
g381
ssS'afonso costa'
p385
(dp386
g4
(dp387
S'ant\xc3\xb3nio vitorino'
p388
I0
sS'jos\xc3\xa9 veiga sim\xc3\xa3o'
p389
I0
sS'te\xc3\xb3filo braga'
p390
I0
ssg7
I64
sg8
g385
ssS'jorge pulido valente'
p391
(dp392
g4
(dp393
S'miguel sousa'
p394
I0
ssg7
I17
sg8
g391
ssS'tim krul'
p395
(dp396
g4
(dp397
S'louis van gaal'
p398
I0
sS'ant\xc3\xb3nio costa'
p399
I0
ssg7
I31
sg8
g395
ssS'manuel fernandes'
p400
(dp401
g4
(dp402
S'rui santos'
p403
I0
ssg7
I1539
sg8
g400
ssS'lu\xc3\xads filipe'
p404
(dp405
g4
(dp406
S'an\xc3\xadbal cavaco silva'
p407
I0
sS'al pacino'
p408
I0
sS'manchester united'
p409
I0
sg365
I3
sS'rui moreira'
p410
I1
sS'v\xc3\xadtor pereira'
p411
I13
sS'isaltino morais'
p412
I1
sg186
I0
sS'pol pot'
p413
I0
sS'jorge jesus'
p414
I75
sS'benni mccarthy'
p415
I0
sS'david luiz'
p416
I5
sS'angela merkel'
p417
I2
ssg7
I3532
sg8
g404
ssg301
(dp418
g4
(dp419
S'jorge jesus'
p420
I24
sS'bruno carvalho'
p421
I188
ssg7
I4705
sg8
g301
ssS'nicolas sarkozy'
p422
(dp423
g4
(dp424
S'isaltino morais'
p425
I0
ssg7
I399
sg8
g422
ssS'f\xc3\xa1bio paim'
p426
(dp427
g4
(dp428
S'pedro passos coelho'
p429
I0
ssg7
I53
sg8
g426
ssS'paula rego'
p430
(dp431
g4
(dp432
S'pedro passos coelho'
p433
I0
ssg7
I812
sg8
g430
ssS'ant\xc3\xb3nio costa'
p434
(dp435
g4
(dp436
S'pedro passos coelho'
p437
I6
sS'jer\xc3\xb3nimo sousa'
p438
I28
sS'ricardo salgado'
p439
I1
sS'eduardo ferro rodrigues'
p440
I0
sS'edson athayde'
p441
I0
sS'f\xc3\xa1tima campos'
p442
I0
sg381
I5
sS'marcelo rebelo'
p443
I45
sS'catarina martins'
p444
I31
sS'paulo bento'
p445
I1
sS'fernando pessoa'
p446
I2
sg21
I3
sS'ana gomes'
p447
I2
sg203
I50
sg65
I0
sS'louis van gaal'
p448
I0
sS'an\xc3\xadbal cavaco silva'
p449
I0
sS'eurico brilhante dias'
p450
I2
sg293
I3
sS'juan carlos'
p451
I0
sS'tim krul'
p452
I0
sS'jorge jesus'
p453
I0
sS'jos\xc3\xa9 pacheco pereira'
p454
I0
sS'jos\xc3\xa9 lello'
p455
I2
sS'ant\xc3\xb3nio lobo xavier'
p456
I2
sS'jorge coelho'
p457
I22
sS'bas\xc3\xadlio horta'
p458
I6
sS'rui rio'
p459
I57
sS'dur\xc3\xa3o barroso'
p460
I0
sS'francisco assis'
p461
I21
ssg7
I11105
sg8
g434
ssS'paulo j\xc3\xbalio'
p462
(dp463
g4
(dp464
S'miguel relvas'
p465
I6
ssg7
I249
sg8
g462
ssS'ted cruz'
p466
(dp467
g4
(dp468
S'cl\xc3\xa1udio ramos'
p469
I0
sS'rita pereira'
p470
I0
ssg7
I108
sg8
g466
ssS'henrique gomes'
p471
(dp472
g4
(dp473
S'\xc3\xa1lvaro santos pereira'
p474
I2
ssg7
I143
sg8
g471
ssS'quim barreiros'
p475
(dp476
g4
(dp477
S'rui moreira'
p478
I0
sS'fernando pessoa'
p479
I0
ssg7
I228
sg8
g475
ssS'ricardo costa'
p480
(dp481
g4
(dp482
S'dur\xc3\xa3o barroso'
p483
I0
sS'francisco pinto balsem\xc3\xa3o'
p484
I1
sS'angel di mar\xc3\xada'
p485
I0
sS'vicente jorge silva'
p486
I0
ssg7
I1672
sg8
g480
ssS'paulo campos'
p487
(dp488
g4
(dp489
S'manchester city'
p490
I0
ssg7
I469
sg8
g487
ssS'valentim loureiro'
p491
(dp492
g4
(dp493
S'pedro proen\xc3\xa7a'
p494
I0
ssg7
I385
sg8
g491
ssg316
(dp495
g4
(dp496
g313
I0
ssg7
I1722
sg8
g316
ssg90
(dp497
g4
(dp498
S'pedro passos coelho'
p499
I0
sS'an\xc3\xadbal cavaco silva'
p500
I0
sS'maxi pereira'
p501
I2
ssg7
I434
sg8
g90
ssg262
(dp502
g4
(dp503
S'an\xc3\xadbal cavaco silva'
p504
I0
ssg7
I1183
sg8
g262
ssg438
(dp505
g4
(dp506
S'an\xc3\xadbal cavaco silva'
p507
I0
sS'pedro passos coelho'
p508
I1
sS'paulo portas'
p509
I26
sS'miguel relvas'
p510
I13
sS'franquelim alves'
p511
I4
sS'catarina martins'
p512
I14
sS'nicol\xc3\xa1s maduro'
p513
I3
sS'v\xc3\xadtor gaspar'
p514
I7
sS'ant\xc3\xb3nio costa'
p515
I28
sg173
I3
ssg7
I4767
sg8
g438
ssS'lu\xc3\xads pita ameixa'
p516
(dp517
g4
(dp518
S'pedro passos coelho'
p519
I0
ssg7
I30
sg8
g516
ssS'h\xc3\xa9lder postiga'
p520
(dp521
g4
(dp522
S'cristiano ronaldo'
p523
I0
ssg7
I696
sg8
g520
ssS'angela merkel'
p524
(dp525
g4
(dp526
S'pedro passos coelho'
p527
I8
sS'an\xc3\xadbal cavaco silva'
p528
I0
sS'iker casillas'
p529
I0
sg404
I2
sS'sara carbonero'
p530
I0
sS'm\xc3\xa1rio soares'
p531
I4
sS'wolfgang schauble'
p532
I0
sS'ant\xc3\xb3nio guterres'
p533
I0
sS'ant\xc3\xb3nio jos\xc3\xa9'
p534
I1
sS'dilma rousseff'
p535
I5
sS'yannick djal\xc3\xb3'
p536
I1
sS'luciana abreu'
p537
I0
sS'v\xc3\xadtor gaspar'
p538
I2
sS'isabel jonet'
p539
I0
ssg7
I1998
sg8
g524
ssS'zlatan ibrahimovic'
p540
(dp541
g4
(dp542
S'cristiano ronaldo'
p543
I4
ssg7
I91
sg8
g540
ssS'mario draghi'
p544
(dp545
g4
(dp546
S'pedro passos coelho'
p547
I0
sS'ricardo quaresma'
p548
I0
ssg7
I604
sg8
g544
ssg119
(dp549
g4
(dp550
g91
I0
sg116
I0
ssg7
I64
sg8
g119
ssS'jos\xc3\xa9 maria del nido'
p551
(dp552
g4
(dp553
S'ricardo salgado'
p554
I0
sS'm\xc3\xa1rio crespo'
p555
I0
ssg7
I0
sg8
g551
ssS'santo tirso'
p556
(dp557
g4
(dp558
S'ant\xc3\xb3nio jos\xc3\xa9'
p559
I0
ssg7
I1586
sg8
g556
ssg398
(dp560
g4
(dp561
S'ant\xc3\xb3nio costa'
p562
I0
sg395
I0
ssg7
I111
sg8
g398
ssg285
(dp563
g4
(dp564
S'an\xc3\xadbal cavaco silva'
p565
I0
ssg7
I376
sg8
g285
ssS'impulso jovem'
p566
(dp567
g4
(dp568
g349
I0
sS'miguel gon\xc3\xa7alves'
p569
I5
ssg7
I450
sg8
g566
ssS'te\xc3\xb3filo braga'
p570
(dp571
g4
(dp572
S'ant\xc3\xb3nio vitorino'
p573
I0
sS'jos\xc3\xa9 veiga sim\xc3\xa3o'
p574
I0
sS'afonso costa'
p575
I0
ssg7
I38
sg8
g570
ssg469
(dp576
g4
(dp577
S'nuno rogeiro'
p578
I0
sS'rita pereira'
p579
I0
sg466
I0
ssg7
I114
sg8
g469
ssS'manuela moura guedes'
p580
(dp581
g4
(dp582
S'jos\xc3\xa9 eduardo bettencourt'
p583
I0
sS'paulo bento'
p584
I0
ssg7
I202
sg8
g580
ssS'vitor const\xc3\xa2ncio'
p585
(dp586
g4
(dp587
S'dur\xc3\xa3o barroso'
p588
I0
sS'papa francisco'
p589
I0
sS'steve jobs'
p590
I0
sS'nuno melo'
p591
I7
ssg7
I620
sg8
g585
ssS'demis roussos'
p592
(dp593
g4
(dp594
S'v\xc3\xadtor gaspar'
p595
I0
ssg7
I29
sg8
g592
ssg40
(dp596
g4
(dp597
g37
I0
ssg7
I375
sg8
g40
ssS'jo\xc3\xa3o proen\xc3\xa7a'
p598
(dp599
g4
(dp600
S'jorge lac\xc3\xa3o'
p601
I1
ssg7
I961
sg8
g598
ssS'ana drago'
p602
(dp603
g4
(dp604
S'daniel oliveira'
p605
I17
sS'rui tavares'
p606
I29
ssg7
I271
sg8
g602
ssS'jo\xc3\xa3o bai\xc3\xa3o'
p607
(dp608
g4
(dp609
S'catarina furtado'
p610
I1
sS'fernando mendes'
p611
I0
sS'm\xc3\xa1rio crespo'
p612
I0
ssg7
I84
sg8
g607
ssS'ana avoila'
p613
(dp614
g4
(dp615
S'barack obama'
p616
I0
ssg7
I143
sg8
g613
ssS'em\xc3\xaddio rangel'
p617
(dp618
g4
(dp619
S'rui pedro'
p620
I5
ssg7
I214
sg8
g617
ssS'pedro filipe soares'
p621
(dp622
g4
(dp623
S'catarina martins'
p624
I13
ssg7
I212
sg8
g621
ssS'jaime nogueira pinto'
p625
(dp626
g4
(dp627
S'pedro passos coelho'
p628
I0
sS'maria jos\xc3\xa9'
p629
I0
sS'assun\xc3\xa7\xc3\xa3o esteves'
p630
I0
ssg7
I15
sg8
g625
ssS'bill gates'
p631
(dp632
g4
(dp633
S'rui machete'
p634
I0
ssg7
I589
sg8
g631
ssS'david carreira'
p635
(dp636
g4
(dp637
S'lu\xc3\xads mota soares'
p638
I0
sS'alberto martins'
p639
I0
ssg7
I273
sg8
g635
ssS'rita pereira'
p640
(dp641
g4
(dp642
S'an\xc3\xadbal cavaco silva'
p643
I0
sS'cl\xc3\xa1udio ramos'
p644
I0
sS'pires lima'
p645
I0
sS'ted cruz'
p646
I0
ssg7
I721
sg8
g640
ssg162
(dp647
g4
(dp648
S'bruno carvalho'
p649
I35
sS'lu\xc3\xads godinho lopes'
p650
I0
sS'sim\xc3\xa3o sabrosa'
p651
I0
sS'cristiano ronaldo'
p652
I4
sg156
I25
ssg7
I1880
sg8
g162
ssS'matteo renzi'
p653
(dp654
g4
(dp655
S'beppe grillo'
p656
I1
ssg7
I67
sg8
g653
ssS'lu\xc3\xads filipe vieira'
p657
(dp658
g4
(dp659
S'costa lu\xc3\xads'
p660
I89
sS'bruno carvalho'
p661
I62
ssg7
I2420
sg8
g657
ssg441
(dp662
g4
(dp663
S'pedro passos coelho'
p664
I0
sS'ant\xc3\xb3nio costa'
p665
I0
sS'ascenso sim\xc3\xb5es'
p666
I0
ssg7
I43
sg8
g441
ssg243
(dp667
g4
(dp668
S'an\xc3\xadbal cavaco silva'
p669
I0
ssg7
I424
sg8
g243
ssS'assun\xc3\xa7\xc3\xa3o esteves'
p670
(dp671
g4
(dp672
S'an\xc3\xadbal cavaco silva'
p673
I0
sS'pedro passos coelho'
p674
I0
sS'carlos carmo'
p675
I1
sS'maria jos\xc3\xa9'
p676
I3
sS'jaime nogueira pinto'
p677
I0
sS'lu\xc3\xads marques guedes'
p678
I0
sS'nuno santos'
p679
I12
ssg7
I1445
sg8
g670
ssg217
(dp680
g4
(dp681
S'jos\xc3\xa9 s\xc3\xb3crates'
p682
I0
sS'pedro silva pereira'
p683
I0
ssg7
I192
sg8
g217
ssg35
(dp684
g4
(dp685
S'rafa ben\xc3\xadtez'
p686
I0
sS'cristiano ronaldo'
p687
I12
ssg7
I1685
sg8
g35
ssg409
(dp688
g4
(dp689
S'carlos queiroz'
p690
I6
sS'alex ferguson'
p691
I79
sS'lu\xc3\xads filipe'
p692
I0
sS'david luiz'
p693
I5
sS'pedro passos coelho'
p694
I0
ssg7
I5505
sg8
g409
ssg30
(dp695
g4
(dp696
g26
I0
sS'teresa guilherme'
p697
I0
ssg7
I1070
sg8
g30
ssg513
(dp698
g4
(dp699
S'jer\xc3\xb3nimo sousa'
p700
I3
sS'pedro santana lopes'
p701
I0
sS'miguel poiares maduro'
p702
I0
ssg7
I1007
sg8
g513
ssS'miguel cadilhe'
p703
(dp704
g4
(dp705
S'paulo portas'
p706
I4
ssg7
I232
sg8
g703
ssS'social democrata'
p707
(dp708
g4
(dp709
S'mikhail gorbatchov'
p710
I0
ssg7
I479
sg8
g707
ssS'm\xc3\xa1rio centeno'
p711
(dp712
g4
(dp713
S'maria lu\xc3\xads albuquerque'
p714
I3
ssg7
I339
sg8
g711
ssS'joaquim pais jorge'
p715
(dp716
g4
(dp717
S'lu\xc3\xads marques mendes'
p718
I0
ssg7
I66
sg8
g715
ssg660
(dp719
g4
(dp720
g657
I89
sS'bruno carvalho'
p721
I3
ssg7
I505
sg8
g660
ssg394
(dp722
g4
(dp723
S'jos\xc3\xa9 s\xc3\xb3crates'
p724
I1
sg391
I0
ssg7
I382
sg8
g394
ssS'jesualdo ferreira'
p725
(dp726
g4
(dp727
S'lu\xc3\xads godinho lopes'
p728
I0
sS'lu\xc3\xads figo'
p729
I0
ssg7
I2087
sg8
g725
ssS'papa francisco'
p730
(dp731
g4
(dp732
S'pedro passos coelho'
p733
I0
sS'an\xc3\xadbal cavaco silva'
p734
I0
sS'paulo portas'
p735
I8
sS'vitor const\xc3\xa2ncio'
p736
I0
sS'ant\xc3\xb3nio jos\xc3\xa9'
p737
I1
ssg7
I3620
sg8
g730
ssS'alberto jo\xc3\xa3o jardim'
p738
(dp739
g4
(dp740
S'pedro passos coelho'
p741
I0
sS'an\xc3\xadbal cavaco silva'
p742
I0
sS'ant\xc3\xb3nio mexia'
p743
I0
ssg7
I1583
sg8
g738
ssg25
(dp744
g4
(dp745
S'jos\xc3\xa9 rodrigues'
p746
I2
ssg7
I64
sg8
g25
ssS'vasco louren\xc3\xa7o'
p747
(dp748
g4
(dp749
S'paulo portas'
p750
I1
ssg7
I360
sg8
g747
ssS'fernando ulrich'
p751
(dp752
g4
(dp753
S'jorge jesus'
p754
I0
sS'joe biden'
p755
I0
sS'ricardo salgado'
p756
I2
ssg7
I535
sg8
g751
ssS'teixeira santos'
p757
(dp758
g4
(dp759
S'v\xc3\xadtor gaspar'
p760
I46
ssg7
I3999
sg8
g757
ssS'jorge barreto xavier'
p761
(dp762
g4
(dp763
S'pedro passos coelho'
p764
I0
ssg7
I44
sg8
g761
ssS'luciana abreu'
p765
(dp766
g4
(dp767
S'dur\xc3\xa3o barroso'
p768
I0
sS'angela merkel'
p769
I0
sS'yannick djal\xc3\xb3'
p770
I42
ssg7
I272
sg8
g765
ssS'pedro proen\xc3\xa7a'
p771
(dp772
g4
(dp773
g491
I0
sS'rui moreira'
p774
I0
ssg7
I2864
sg8
g771
ssg255
(dp775
g4
(dp776
S'an\xc3\xadbal cavaco silva'
p777
I0
sS'nelson mandela'
p778
I42
ssg7
I1262
sg8
g255
ssS'morgan freeman'
p779
(dp780
g4
(dp781
S'miguel poiares maduro'
p782
I0
ssg7
I92
sg8
g779
ssS'ant\xc3\xb3nio marinho pinto'
p783
(dp784
g4
(dp785
S'joachim low'
p786
I0
sg106
I0
ssg7
I20
sg8
g783
ssS'berta cabral'
p787
(dp788
g4
(dp789
S'pedro passos coelho'
p790
I0
ssg7
I1433
sg8
g787
ssS'xanana gusm\xc3\xa3o'
p791
(dp792
g4
(dp793
S'paulo portas'
p794
I0
sS'franco jara'
p795
I0
ssg7
I692
sg8
g791
ssS'miguel relvas'
p796
(dp797
g4
(dp798
S'pedro passos coelho'
p799
I7
sS'\xc3\xa1lvaro santos pereira'
p800
I6
sS'paulo portas'
p801
I14
sS'jo\xc3\xa3o semedo'
p802
I9
sS'jos\xc3\xa9 s\xc3\xb3crates'
p803
I14
sS'leonardo jardim'
p804
I0
sS'maria lu\xc3\xads albuquerque'
p805
I0
sS'v\xc3\xadtor pereira'
p806
I0
sS'jer\xc3\xb3nimo sousa'
p807
I13
sS'jorge silva carvalho'
p808
I4
sS'jos\xc3\xa9 pacheco pereira'
p809
I0
sS'jorge jesus'
p810
I1
sS'bruce springsteen'
p811
I0
sS'michael phelps'
p812
I0
sS'rui rio'
p813
I2
sS'cristina ferreira'
p814
I0
sS'sporting braga'
p815
I0
sS'v\xc3\xadtor gaspar'
p816
I13
sg462
I6
sS'cristiano ronaldo'
p817
I5
sS'vicente jorge silva'
p818
I0
ssg7
I3980
sg8
g796
ssS'ricardo quaresma'
p819
(dp820
g4
(dp821
S'pedro passos coelho'
p822
I0
sS'catarina furtado'
p823
I0
sS'jorge jesus'
p824
I2
sS'amaral dias'
p825
I0
sS'daniela pimenta'
p826
I0
sS'mario draghi'
p827
I0
ssg7
I406
sg8
g819
ssg304
(dp828
g4
(dp829
S'bruno carvalho'
p830
I2
ssg7
I437
sg8
g304
ssS'lu\xc3\xads amado'
p831
(dp832
g4
(dp833
S'ana gomes'
p834
I5
sS'jos\xc3\xa9 s\xc3\xb3crates'
p835
I5
sS'barack obama'
p836
I4
ssg7
I1356
sg8
g831
ssS'jo\xc3\xa3o semedo'
p837
(dp838
g4
(dp839
S'pedro passos coelho'
p840
I0
sS'miguel relvas'
p841
I9
sS'catarina martins'
p842
I66
ssg7
I805
sg8
g837
ssg697
(dp843
g4
(dp844
S'j\xc3\xbalia pinheiro'
p845
I8
sS'jo\xc3\xa3o ferreira'
p846
I0
ssg7
I137
sg8
g697
ssS'rui tavares'
p847
(dp848
g4
(dp849
S'daniel oliveira'
p850
I6
sS'ana drago'
p851
I29
sS'miguel poiares maduro'
p852
I0
ssg7
I436
sg8
g847
ssS'sporting braga'
p853
(dp854
g4
(dp855
S'leonardo jardim'
p856
I131
sS'v\xc3\xadtor pereira'
p857
I16
sS'miguel relvas'
p858
I0
ssg7
I8146
sg8
g853
ssS'angelina jolie'
p859
(dp860
g4
(dp861
S'lu\xc3\xads marques mendes'
p862
I0
sS'ant\xc3\xb3nio guterres'
p863
I4
sS'marcelo rebelo'
p864
I0
ssg7
I842
sg8
g859
ssS'daniel oliveira'
p865
(dp866
g4
(dp867
S'an\xc3\xadbal cavaco silva'
p868
I0
sS'ant\xc3\xb3nio capucho'
p869
I0
sg602
I17
sS'francisco lou\xc3\xa7\xc3\xa3'
p870
I2
sS'rui rio'
p871
I0
sg847
I6
ssg7
I259
sg8
g865
ssS'rui machete'
p872
(dp873
g4
(dp874
S'jorge jesus'
p875
I0
sS'ana gomes'
p876
I2
sS'franquelim alves'
p877
I0
sg631
I0
sg322
I0
sS'pires lima'
p878
I16
ssg7
I1380
sg8
g872
ssg718
(dp879
g4
(dp880
g715
I0
sS'dur\xc3\xa3o barroso'
p881
I0
sS'marcelo rebelo'
p882
I0
sS'lu\xc3\xads morais sarmento'
p883
I0
sS'angelina jolie'
p884
I0
ssg7
I60
sg8
g718
ssS'paul krugman'
p885
(dp886
g4
(dp887
S'paulo portas'
p888
I0
sS'jos\xc3\xa9 s\xc3\xb3crates'
p889
I0
sS'miguel poiares maduro'
p890
I0
ssg7
I166
sg8
g885
ssg863
(dp891
g4
(dp892
g859
I4
sS'angela merkel'
p893
I0
sS'pedro passos coelho'
p894
I0
ssg7
I629
sg8
g863
ssg535
(dp895
g4
(dp896
S'angela merkel'
p897
I5
sS'm\xc3\xa1rio soares'
p898
I14
ssg7
I2682
sg8
g535
ssg130
(dp899
g4
(dp900
g127
I2
ssg7
I222
sg8
g130
ssS'assun\xc3\xa7\xc3\xa3o cristas'
p901
(dp902
g4
(dp903
S'\xc3\xa1lvaro santos pereira'
p904
I0
sS'v\xc3\xadtor gaspar'
p905
I1
sS'maria lu\xc3\xads albuquerque'
p906
I1
sS'barack obama'
p907
I0
sS'paulo portas'
p908
I32
ssg7
I1720
sg8
g901
ssS'b\xc3\xa1rbara guimar\xc3\xa3es'
p909
(dp910
g4
(dp911
S'manuel maria'
p912
I28
ssg7
I316
sg8
g909
ssS'maria jos\xc3\xa9'
p913
(dp914
g4
(dp915
S'jorge jesus'
p916
I0
sS'pedro passos coelho'
p917
I0
sS'assun\xc3\xa7\xc3\xa3o esteves'
p918
I3
sS'jaime nogueira pinto'
p919
I0
ssg7
I1539
sg8
g913
ssS'bas\xc3\xadlio horta'
p920
(dp921
g4
(dp922
S'paulo portas'
p923
I1
sS'ant\xc3\xb3nio costa'
p924
I6
ssg7
I784
sg8
g920
ssg282
(dp925
g4
(dp926
S'an\xc3\xadbal cavaco silva'
p927
I0
ssg7
I155
sg8
g282
ssg283
(dp928
g4
(dp929
S'an\xc3\xadbal cavaco silva'
p930
I0
sS'fernando nobre'
p931
I14
ssg7
I1338
sg8
g283
ssg826
(dp932
g4
(dp933
g819
I0
ssg7
I9
sg8
g826
ssS'm\xc3\xa1rio soares'
p934
(dp935
g4
(dp936
S'pedro passos coelho'
p937
I1
sS'an\xc3\xadbal cavaco silva'
p938
I0
sS'agostinho almeida santos'
p939
I0
sS'isabel moreira'
p940
I1
sS'ant\xc3\xb3nio jos\xc3\xa9'
p941
I17
sS'dilma rousseff'
p942
I14
sS'jos\xc3\xa9 s\xc3\xb3crates'
p943
I44
sS'marcelo rebelo'
p944
I2
sS'oliveira salazar'
p945
I0
sS'dur\xc3\xa3o barroso'
p946
I24
sS'angela merkel'
p947
I4
sS'manuel alegre'
p948
I23
sg353
I0
ssg7
I3105
sg8
g934
ssg440
(dp949
g4
(dp950
S'ant\xc3\xb3nio costa'
p951
I0
ssg7
I6
sg8
g440
ssg215
(dp952
g4
(dp953
S'jos\xc3\xa9 s\xc3\xb3crates'
p954
I0
sS'noronha do nascimento'
p955
I0
ssg7
I3
sg8
g215
ssg290
(dp956
g4
(dp957
S'paulo mota'
p958
I9
sS'manuel ferreira leite'
p959
I0
ssg7
I484
sg8
g290
ssS'manuel alegre'
p960
(dp961
g4
(dp962
S'an\xc3\xadbal cavaco silva'
p963
I0
sS'franquelim alves'
p964
I11
sS'agostinho almeida santos'
p965
I0
sS'm\xc3\xa1rio soares'
p966
I23
sS'ant\xc3\xb3nio jos\xc3\xa9'
p967
I11
ssg7
I1926
sg8
g960
ssg869
(dp968
g4
(dp969
S'pedro passos coelho'
p970
I0
sS'daniel oliveira'
p971
I0
sS'v\xc3\xadtor gaspar'
p972
I6
sS's\xc3\xa1 carneiro'
p973
I4
ssg7
I368
sg8
g869
ssS'jo\xc3\xa3o vieira'
p974
(dp975
g4
(dp976
S'rui rangel'
p977
I0
ssg7
I1056
sg8
g974
ssg413
(dp978
g4
(dp979
S'isaltino morais'
p980
I0
sS'lu\xc3\xads filipe'
p981
I0
ssg7
I1
sg8
g413
ssg446
(dp982
g4
(dp983
S'ant\xc3\xb3nio costa'
p984
I2
sg475
I0
ssg7
I888
sg8
g446
ssg64
(dp985
g4
(dp986
S'judite sousa'
p987
I0
sS'pedro passos coelho'
p988
I0
ssg7
I38
sg8
g64
ssS'v\xc3\xadtor s\xc3\xa3o bento'
p989
(dp990
g4
(dp991
S'pedro passos coelho'
p992
I1
sS'an\xc3\xadbal cavaco silva'
p993
I0
ssg7
I10
sg8
g989
ssg264
(dp994
g4
(dp995
S'an\xc3\xadbal cavaco silva'
p996
I0
sS'pedro passos coelho'
p997
I0
sS'miguel relvas'
p998
I0
sS'bruno carvalho'
p999
I0
sS'assun\xc3\xa7\xc3\xa3o cristas'
p1000
I1
sS'carlos moedas'
p1001
I5
sS'neg\xc3\xb3cios estrangeiros'
p1002
I0
sg711
I3
sS'cristina ferreira'
p1003
I0
sS'v\xc3\xadtor gaspar'
p1004
I17
sS'pablo picasso'
p1005
I0
ssg7
I1487
sg8
g264
ssS'jo\xc3\xa3o cordeiro'
p1006
(dp1007
g4
(dp1008
S'ramalho eanes'
p1009
I6
ssg7
I139
sg8
g1006
ssS'james bond'
p1010
(dp1011
g4
(dp1012
S'paulo portas'
p1013
I0
ssg7
I431
sg8
g1010
ssS'jo\xc3\xa3o rendeiro'
p1014
(dp1015
g4
(dp1016
S'oliveira costa'
p1017
I0
ssg7
I316
sg8
g1014
ssg63
(dp1018
g4
(dp1019
g59
I2
sS'isaltino morais'
p1020
I0
sg135
I8
ssg7
I563
sg8
g63
ssg292
(dp1021
g4
(dp1022
g286
I0
sS'miguel relvas'
p1023
I0
sS'rui rio'
p1024
I0
sS'nelson mandela'
p1025
I0
sS'ant\xc3\xb3nio costa'
p1026
I0
ssg7
I16
sg8
g292
ssS'\xc3\xa1lvaro santos pereira'
p1027
(dp1028
g4
(dp1029
g471
I2
sS'paulo portas'
p1030
I4
sS'miguel relvas'
p1031
I6
sS'assun\xc3\xa7\xc3\xa3o cristas'
p1032
I0
sS'v\xc3\xadtor gaspar'
p1033
I15
ssg7
I876
sg8
g1027
ssS'leonardo jardim'
p1034
(dp1035
g4
(dp1036
g853
I131
sS'v\xc3\xadtor pereira'
p1037
I12
sS'miguel relvas'
p1038
I0
ssg7
I3984
sg8
g1034
ssS'alexis tsipras'
p1039
(dp1040
g4
(dp1041
S'carlos alexandre'
p1042
I0
ssg7
I329
sg8
g1039
ssg276
(dp1043
g4
(dp1044
S'an\xc3\xadbal cavaco silva'
p1045
I0
sS'pedro passos coelho'
p1046
I3
sS'francisco lopes'
p1047
I14
ssg7
I1373
sg8
g276
ssS'domingos duarte lima'
p1048
(dp1049
g4
(dp1050
S'isaltino morais'
p1051
I0
sS'fel\xc3\xadcia cabrita'
p1052
I0
sS'oliveira costa'
p1053
I0
sS'dias loureiro'
p1054
I0
ssg7
I1
sg8
g1048
ssg786
(dp1055
g4
(dp1056
S'jurgen klinsmann'
p1057
I0
sg783
I0
ssg7
I343
sg8
g786
ssS'amaral dias'
p1058
(dp1059
g4
(dp1060
S'ricardo quaresma'
p1061
I0
sS'paulo portas'
p1062
I0
ssg7
I168
sg8
g1058
ssg412
(dp1063
g4
(dp1064
S'lu\xc3\xads filipe'
p1065
I1
sS'martin scorsese'
p1066
I0
sg422
I0
sS'pol pot'
p1067
I0
sS'domingos duarte lima'
p1068
I0
sS'dias loureiro'
p1069
I0
sS'oliveira costa'
p1070
I0
sS'fernando seara'
p1071
I0
ssg7
I873
sg8
g412
ssS'wolfgang schauble'
p1072
(dp1073
g4
(dp1074
S'pedro passos coelho'
p1075
I0
sS'an\xc3\xadbal cavaco silva'
p1076
I0
sS'lu\xc3\xads godinho lopes'
p1077
I0
sS'ricardo salgado'
p1078
I0
sS'angela merkel'
p1079
I0
sS'ant\xc3\xb3nio borges'
p1080
I0
ssg7
I76
sg8
g1072
ssS'nova iorque'
p1081
(dp1082
g4
(dp1083
S'paulo portas'
p1084
I7
ssg7
I7688
sg8
g1081
ssg620
(dp1085
g4
(dp1086
g617
I5
ssg7
I1948
sg8
g620
ssg944
(dp1087
g4
(dp1088
S'an\xc3\xadbal cavaco silva'
p1089
I0
sS'm\xc3\xa1rio soares'
p1090
I2
sS'lu\xc3\xads marques mendes'
p1091
I0
sS'pedro pinto'
p1092
I1
sS'dur\xc3\xa3o barroso'
p1093
I7
sS'ant\xc3\xb3nio costa'
p1094
I45
sS'angelina jolie'
p1095
I0
ssg7
I2144
sg8
g944
ssS'manuel sampaio pimentel'
p1096
(dp1097
g4
(dp1098
S'rui moreira'
p1099
I0
ssg7
I0
sg8
g1096
ssS'silva ribeiro'
p1100
(dp1101
g4
(dp1102
S'joaquim rita'
p1103
I0
sS'rui santos'
p1104
I0
sS'jorge baptista'
p1105
I0
ssg7
I270
sg8
g1100
ssS'pedro silva pereira'
p1106
(dp1107
g4
(dp1108
S'pedro passos coelho'
p1109
I3
sS'paulo rangel'
p1110
I3
sS'artur santos silva'
p1111
I0
sS'jos\xc3\xa9 s\xc3\xb3crates'
p1112
I5
sS'parlamento europeu'
p1113
I1
ssg7
I385
sg8
g1106
ssS'd. manuel clemente'
p1114
(dp1115
g4
(dp1116
S'an\xc3\xadbal cavaco silva'
p1117
I0
sS'pedro passos coelho'
p1118
I0
sS'ant\xc3\xb3nio jos\xc3\xa9'
p1119
I0
ssg7
I497
sg8
g1114
ssS'john lennon'
p1120
(dp1121
g4
(dp1122
S'michael jackson'
p1123
I2
ssg7
I312
sg8
g1120
ssS'robbie williams'
p1124
(dp1125
g4
(dp1126
S'carlo ancelotti'
p1127
I0
ssg7
I260
sg8
g1124
ssg303
(dp1128
g4
(dp1129
S'bruno carvalho'
p1130
I18
ssg7
I1103
sg8
g303
ssg583
(dp1131
g4
(dp1132
g580
I0
ssg7
I62
sg8
g583
ssg955
(dp1133
g4
(dp1134
S'jos\xc3\xa9 s\xc3\xb3crates'
p1135
I0
sS'fernando pinto monteiro'
p1136
I0
ssg7
I79
sg8
g955
ssg1092
(dp1137
g4
(dp1138
S'marcelo rebelo'
p1139
I1
ssg7
I366
sg8
g1092
ssg539
(dp1140
g4
(dp1141
S'angela merkel'
p1142
I0
ssg7
I206
sg8
g539
ssS'jos\xc3\xa9 cid'
p1143
(dp1144
g4
(dp1145
S'pedro santana lopes'
p1146
I0
ssg7
I556
sg8
g1143
ssS'poul thomsen'
p1147
(dp1148
g4
(dp1149
S'pedro passos coelho'
p1150
I1
sS'abebe selassie'
p1151
I1
ssg7
I132
sg8
g1147
ssg743
(dp1152
g4
(dp1153
g738
I0
ssg7
I523
sg8
g743
ssg221
(dp1154
g4
(dp1155
S'jos\xc3\xa9 s\xc3\xb3crates'
p1156
I1
ssg7
I482
sg8
g221
ssS'lu\xc3\xads mota soares'
p1157
(dp1158
g4
(dp1159
g635
I0
sS'alberto martins'
p1160
I0
ssg7
I2
sg8
g1157
ssS'ricardo salgado'
p1161
(dp1162
g4
(dp1163
S'pedro passos coelho'
p1164
I0
sS'ant\xc3\xb3nio costa'
p1165
I1
sS'armando vara'
p1166
I0
sS'wolfgang schauble'
p1167
I0
sS'jos\xc3\xa9 maria del nido'
p1168
I0
sS'carlos alexandre'
p1169
I24
sS'fernando ulrich'
p1170
I2
sg344
I6
sg112
I3
sS'ant\xc3\xb3nio borges'
p1171
I0
sS'nuno esp\xc3\xadrito santo'
p1172
I0
ssg7
I2633
sg8
g1161
ssg80
(dp1173
g4
(dp1174
g77
I0
ssg7
I472
sg8
g80
ssS'irina shayk'
p1175
(dp1176
g4
(dp1177
S'jorge mendes'
p1178
I0
ssg7
I875
sg8
g1175
ssg1160
(dp1179
g4
(dp1180
g1157
I0
sS'david carreira'
p1181
I0
ssg7
I551
sg8
g1160
ssS'ant\xc3\xb3nio jos\xc3\xa9'
p1182
(dp1183
g4
(dp1184
S'pedro passos coelho'
p1185
I11
sS'm\xc3\xa1rio soares'
p1186
I17
sS'paulo portas'
p1187
I3
sS'papa francisco'
p1188
I1
sg1114
I0
sS'dolly parton'
p1189
I0
sS'jorge coelho'
p1190
I0
sg960
I11
sS'jorge jesus'
p1191
I0
sg556
I0
sS'angela merkel'
p1192
I1
sS'ricardo s\xc3\xa1'
p1193
I2
sS'cristiano ronaldo'
p1194
I10
sS'jo\xc3\xa3o soares'
p1195
I4
ssg7
I2980
sg8
g1182
ssg291
(dp1196
g4
(dp1197
S'mota amaral'
p1198
I9
sS'manuel ferreira leite'
p1199
I0
sS'jo\xc3\xa3o soares'
p1200
I22
ssg7
I153
sg8
g291
ssg811
(dp1201
g4
(dp1202
S'miguel relvas'
p1203
I0
ssg7
I340
sg8
g811
ssS'jos\xc3\xa9 veiga sim\xc3\xa3o'
p1204
(dp1205
g4
(dp1206
S'ant\xc3\xb3nio vitorino'
p1207
I0
sS'te\xc3\xb3filo braga'
p1208
I0
sS'afonso costa'
p1209
I0
ssg7
I3
sg8
g1204
ssg675
(dp1210
g4
(dp1211
g670
I1
ssg7
I734
sg8
g675
ssS'armando vara'
p1212
(dp1213
g4
(dp1214
S'ricardo salgado'
p1215
I0
sS'jos\xc3\xa9 s\xc3\xb3crates'
p1216
I8
sS'carlos alexandre'
p1217
I16
sS'dias loureiro'
p1218
I0
ssg7
I739
sg8
g1212
ssg250
(dp1219
g4
(dp1220
S'an\xc3\xadbal cavaco silva'
p1221
I0
ssg7
I83
sg8
g250
ssS'marcelo caetano'
p1222
(dp1223
g4
(dp1224
S'paulo pereira'
p1225
I0
ssg7
I20
sg8
g1222
ssS'enzo p\xc3\xa9rez'
p1226
(dp1227
g4
(dp1228
S'pedro passos coelho'
p1229
I0
ssg7
I1783
sg8
g1226
ssg220
(dp1230
g4
(dp1231
S'jos\xc3\xa9 s\xc3\xb3crates'
p1232
I0
ssg7
I13
sg8
g220
ssg678
(dp1233
g4
(dp1234
S'assun\xc3\xa7\xc3\xa3o esteves'
p1235
I0
ssg7
I38
sg8
g678
ssg701
(dp1236
g4
(dp1237
S'pedro passos coelho'
p1238
I0
sS'dur\xc3\xa3o barroso'
p1239
I0
sS's\xc3\xa1 carneiro'
p1240
I0
sg1143
I0
sS'nicol\xc3\xa1s maduro'
p1241
I0
ssg7
I126
sg8
g701
ssg1225
(dp1242
g4
(dp1243
g1222
I0
ssg7
I889
sg8
g1225
ssg258
(dp1244
g4
(dp1245
g234
I0
sS'artur baptista'
p1246
I1
ssg7
I259
sg8
g258
ssg134
(dp1247
g4
(dp1248
g131
I0
ssg7
I40
sg8
g134
ssg1193
(dp1249
g4
(dp1250
S'ant\xc3\xb3nio jos\xc3\xa9'
p1251
I2
ssg7
I245
sg8
g1193
ssg124
(dp1252
g4
(dp1253
g1106
I3
sS'francisco assis'
p1254
I5
ssg7
I1039
sg8
g124
ssS'david neeleman'
p1255
(dp1256
g4
(dp1257
S'jorge jesus'
p1258
I0
ssg7
I122
sg8
g1255
ssg1218
(dp1259
g4
(dp1260
S'pedro passos coelho'
p1261
I0
sS'an\xc3\xadbal cavaco silva'
p1262
I0
sS'isaltino morais'
p1263
I0
sg1212
I0
sS'marco ant\xc3\xb3nio'
p1264
I0
sS'oliveira costa'
p1265
I23
sg1048
I0
ssg7
I247
sg8
g1218
ssg1123
(dp1266
g4
(dp1267
g1120
I2
ssg7
I1518
sg8
g1123
ssS'alfredo barroso'
p1268
(dp1269
g4
(dp1270
S'teresa caeiro'
p1271
I3
ssg7
I91
sg8
g1268
ssS'freddie mercury'
p1272
(dp1273
g4
(dp1274
S'paulo portas'
p1275
I0
ssg7
I151
sg8
g1272
ssS'jorge mendes'
p1276
(dp1277
g4
(dp1278
S'an\xc3\xadbal cavaco silva'
p1279
I0
sS'pedro passos coelho'
p1280
I0
sg1175
I0
sS'cristiano ronaldo'
p1281
I63
ssg7
I952
sg8
g1276
ssS'aung san'
p1282
(dp1283
g4
(dp1284
S'suu kyi'
p1285
I592
ssg7
I605
sg8
g1282
ssg611
(dp1286
g4
(dp1287
S'catarina furtado'
p1288
I0
sS'jo\xc3\xa3o bai\xc3\xa3o'
p1289
I0
ssg7
I356
sg8
g611
ssg12
(dp1290
g4
(dp1291
S'pedro passos coelho'
p1292
I0
sS'maxi pereira'
p1293
I11
sS'lu\xc3\xads filipe'
p1294
I75
sS'oscar cardozo'
p1295
I16
sS'bruno carvalho'
p1296
I84
sS'catarina furtado'
p1297
I0
sS'fernando ulrich'
p1298
I0
sS'joe biden'
p1299
I0
sS'marco silva'
p1300
I24
sS'ant\xc3\xb3nio jos\xc3\xa9'
p1301
I0
sS'miguel relvas'
p1302
I1
sg9
I0
sS'rui machete'
p1303
I0
sg913
I0
sg1255
I0
sg69
I0
sS'ant\xc3\xb3nio costa'
p1304
I0
sS'ricardo quaresma'
p1305
I2
ssg7
I11647
sg8
g12
ssg812
(dp1306
g4
(dp1307
g796
I0
ssg7
I322
sg8
g812
ssS'carlos abreu'
p1308
(dp1309
g4
(dp1310
S'v\xc3\xadtor gaspar'
p1311
I11
ssg7
I145
sg8
g1308
ssS'sara carbonero'
p1312
(dp1313
g4
(dp1314
S'pedro passos coelho'
p1315
I0
sS'angela merkel'
p1316
I0
sS'iker casillas'
p1317
I60
ssg7
I416
sg8
g1312
ssg610
(dp1318
g4
(dp1319
S'jorge jesus'
p1320
I0
sS'ricardo quaresma'
p1321
I0
sS'jo\xc3\xa3o bai\xc3\xa3o'
p1322
I1
sS'fernando mendes'
p1323
I0
ssg7
I292
sg8
g610
ssg1017
(dp1324
g4
(dp1325
S'an\xc3\xadbal cavaco silva'
p1326
I0
sS'isaltino morais'
p1327
I0
sg1014
I0
sS'domingos duarte lima'
p1328
I0
sS'pedro passos coelho'
p1329
I0
sS'edite estrela'
p1330
I0
sS'dias loureiro'
p1331
I23
ssg7
I1010
sg8
g1017
ssg1190
(dp1332
g4
(dp1333
S'ant\xc3\xb3nio costa'
p1334
I22
sS'ant\xc3\xb3nio jos\xc3\xa9'
p1335
I0
ssg7
I496
sg8
g1190
ssg1240
(dp1336
g4
(dp1337
S'ant\xc3\xb3nio capucho'
p1338
I4
sS'pedro santana lopes'
p1339
I0
sS'paulo portas'
p1340
I7
sg55
I0
ssg7
I741
sg8
g1240
ssg1009
(dp1341
g4
(dp1342
g1006
I6
ssg7
I545
sg8
g1009
ssg940
(dp1343
g4
(dp1344
S'm\xc3\xa1rio soares'
p1345
I1
ssg7
I215
sg8
g940
ssg142
(dp1346
g4
(dp1347
S'pedro passos coelho'
p1348
I0
sg139
I0
ssg7
I205
sg8
g142
ssg403
(dp1349
g4
(dp1350
g400
I0
sS'pedro passos coelho'
p1351
I0
sg1100
I0
sS'joaquim rita'
p1352
I0
sS'jorge baptista'
p1353
I0
ssg7
I425
sg8
g403
ssg333
(dp1354
g4
(dp1355
S'paulo portas'
p1356
I17
sS'maria lu\xc3\xads albuquerque'
p1357
I0
sg330
I0
ssg7
I1085
sg8
g333
ssS'lu\xc3\xads figo'
p1358
(dp1359
g4
(dp1360
S'lu\xc3\xads godinho lopes'
p1361
I0
sS'jesualdo ferreira'
p1362
I0
ssg7
I961
sg8
g1358
ssg1099
(dp1363
g4
(dp1364
S'marco ant\xc3\xb3nio'
p1365
I3
sS'lu\xc3\xads filipe'
p1366
I1
sg771
I0
sS'quim barreiros'
p1367
I0
sg1096
I0
ssg7
I2162
sg8
g1099
ssg485
(dp1368
g4
(dp1369
S'ricardo costa'
p1370
I0
ssg7
I51
sg8
g485
ssg1189
(dp1371
g4
(dp1372
g1182
I0
ssg7
I11
sg8
g1189
ssg447
(dp1373
g4
(dp1374
g434
I2
sS'rui machete'
p1375
I2
sg831
I5
ssg7
I1269
sg8
g447
ssg364
(dp1376
g4
(dp1377
g361
I0
ssg7
I144
sg8
g364
ssS'v\xc3\xadtor gaspar'
p1378
(dp1379
g4
(dp1380
S'pedro passos coelho'
p1381
I1
sS'\xc3\xa1lvaro santos pereira'
p1382
I15
sS'paulo portas'
p1383
I16
sg1308
I11
sS'ant\xc3\xb3nio capucho'
p1384
I6
sS'maria lu\xc3\xads albuquerque'
p1385
I17
sS'lionel messi'
p1386
I0
sS'jer\xc3\xb3nimo sousa'
p1387
I7
sg757
I46
sg375
I15
sS'miguel relvas'
p1388
I13
sS'carlos moedas'
p1389
I10
sg592
I0
sS'angela merkel'
p1390
I2
sg901
I1
sS'oprah winfrey'
p1391
I0
sS'ant\xc3\xb3nio borges'
p1392
I9
sg326
I0
sS'cristiano ronaldo'
p1393
I3
ssg7
I4508
sg8
g1378
ssg1172
(dp1394
g4
(dp1395
S'carlos slim'
p1396
I0
sS'v\xc3\xadtor bento'
p1397
I0
sS'ricardo salgado'
p1398
I0
ssg7
I1377
sg8
g1172
ssg1381
(dp1399
g4
(dp1400
g524
I8
sg934
I1
sS'f\xc3\xa1bio coentr\xc3\xa3o'
p1401
I1
sS'jo\xc3\xa3o semedo'
p1402
I0
sS'ricardo salgado'
p1403
I0
sS'lou reed'
p1404
I0
sS'papa francisco'
p1405
I0
sg1072
I0
sg516
I0
sS'david beckham'
p1406
I0
sS'edson athayde'
p1407
I0
sS'ant\xc3\xb3nio jos\xc3\xa9'
p1408
I11
sS'manchester united'
p1409
I0
sS'rafa ben\xc3\xadtez'
p1410
I0
sS'paulo bento'
p1411
I0
sS'dias loureiro'
p1412
I0
sg761
I0
sS'ant\xc3\xb3nio borges'
p1413
I1
sS'assun\xc3\xa7\xc3\xa3o esteves'
p1414
I0
sS'pedro silva pereira'
p1415
I3
sg544
I0
sg989
I1
sS'ant\xc3\xb3nio capucho'
p1416
I0
sg194
I0
sS'marco ant\xc3\xb3nio'
p1417
I0
sS'jorge mendes'
p1418
I0
sS'carlos moedas'
p1419
I0
sS'judite sousa'
p1420
I0
sS'jer\xc3\xb3nimo sousa'
p1421
I1
sS'jos\xc3\xa9 s\xc3\xb3crates'
p1422
I16
sS'rui reininho'
p1423
I0
sS'd. manuel clemente'
p1424
I0
sg1378
I1
sS'vicente jorge silva'
p1425
I0
sg1226
I0
sS'paulo baldaia'
p1426
I0
sS'an\xc3\xadbal cavaco silva'
p1427
I0
sS'margaret thatcher'
p1428
I0
sS'paulo portas'
p1429
I11
sS'ant\xc3\xb3nio guterres'
p1430
I0
sg81
I0
sg787
I0
sg309
I0
sS'maria lu\xc3\xads albuquerque'
p1431
I0
sS'manuel ferreira leite'
p1432
I0
sS'jorge jesus'
p1433
I0
sg625
I0
sS'oliveira salazar'
p1434
I0
sg426
I0
sg430
I0
sS'ant\xc3\xb3nio costa'
p1435
I6
sS'alvaro pereira'
p1436
I1
sS'cristiano ronaldo'
p1437
I3
sS'alex ferguson'
p1438
I0
sg100
I0
sS'miguel relvas'
p1439
I7
sg1312
I0
sS'ricardo quaresma'
p1440
I0
sS'rui santos'
p1441
I0
sS'oliveira costa'
p1442
I0
sS'pedro santana lopes'
p1443
I0
sS'fernando nobre'
p1444
I3
sg1147
I1
sS'alberto jo\xc3\xa3o jardim'
p1445
I0
sS'maria jos\xc3\xa9'
p1446
I0
sS'dur\xc3\xa3o barroso'
p1447
I2
sS'matthew mcconaughey'
p1448
I0
sS'rui gomes'
p1449
I0
ssg7
I1159
sg8
g1381
ssg795
(dp1450
g4
(dp1451
S'xanana gusm\xc3\xa3o'
p1452
I0
ssg7
I131
sg8
g795
ssg601
(dp1453
g4
(dp1454
g598
I1
ssg7
I355
sg8
g601
ssg1169
(dp1455
g4
(dp1456
S'armando vara'
p1457
I16
sg1039
I0
sS'jos\xc3\xa9 s\xc3\xb3crates'
p1458
I12
sg1161
I24
ssg7
I311
sg8
g1169
ssS'benni mccarthy'
p1459
(dp1460
g4
(dp1461
S'al pacino'
p1462
I1
sS'lu\xc3\xads filipe'
p1463
I0
ssg7
I46
sg8
g1459
ssg1281
(dp1464
g4
(dp1465
S'an\xc3\xadbal cavaco silva'
p1466
I0
sS'pedro passos coelho'
p1467
I3
sS'paulo portas'
p1468
I2
sS'miguel relvas'
p1469
I5
sg1276
I63
sg198
I59
sS'ant\xc3\xb3nio jos\xc3\xa9'
p1470
I10
sg520
I0
sS'bruno alves'
p1471
I12
sg31
I10
sS'paulo bento'
p1472
I163
sg540
I4
sS'v\xc3\xadtor gaspar'
p1473
I3
sS'sim\xc3\xa3o sabrosa'
p1474
I1
sS'rui patr\xc3\xadcio'
p1475
I4
ssg7
I12951
sg8
g1281
ssg728
(dp1476
g4
(dp1477
S'bruno carvalho'
p1478
I0
sS'wolfgang schauble'
p1479
I0
sg1358
I0
sS'rui patr\xc3\xadcio'
p1480
I0
sg725
I0
ssg7
I77
sg8
g728
ssS'abebe selassie'
p1481
(dp1482
g4
(dp1483
S'paulo portas'
p1484
I0
sS'arm\xc3\xa9nio carlos'
p1485
I0
sS'poul thomsen'
p1486
I1
sS'paulo bento'
p1487
I0
ssg7
I65
sg8
g1481
ssS'filipe nyusi'
p1488
(dp1489
g4
(dp1490
S'paulo portas'
p1491
I3
ssg7
I102
sg8
g1488
ssS'pedro lomba'
p1492
(dp1493
g4
(dp1494
S'miguel poiares maduro'
p1495
I0
ssg7
I102
sg8
g1492
ssg588
(dp1496
g4
(dp1497
S'pedro passos coelho'
p1498
I2
sS'm\xc3\xa1rio soares'
p1499
I24
sS'lu\xc3\xads marques mendes'
p1500
I0
sS'ant\xc3\xb3nio costa'
p1501
I0
sS'bruno carvalho'
p1502
I16
sS'an\xc3\xadbal cavaco silva'
p1503
I0
sS'pedro santana lopes'
p1504
I0
sS'ricardo costa'
p1505
I0
sg585
I0
sS'marcelo rebelo'
p1506
I7
sS'luciana abreu'
p1507
I0
ssg7
I6278
sg8
g588
ssg770
(dp1508
g4
(dp1509
S'angela merkel'
p1510
I1
sg765
I42
ssg7
I634
sg8
g770
ssS'fran\xc3\xa7ois hollande'
p1511
(dp1512
g4
(dp1513
S'paulo portas'
p1514
I1
ssg7
I910
sg8
g1511
ssg590
(dp1515
g4
(dp1516
S'vitor const\xc3\xa2ncio'
p1517
I0
ssg7
I1000
sg8
g590
ssg1391
(dp1518
g4
(dp1519
S'v\xc3\xadtor gaspar'
p1520
I0
ssg7
I228
sg8
g1391
ssg444
(dp1521
g4
(dp1522
S'an\xc3\xadbal cavaco silva'
p1523
I0
sg621
I13
sS'jer\xc3\xb3nimo sousa'
p1524
I14
sS'ant\xc3\xb3nio costa'
p1525
I31
sg837
I66
ssg7
I1587
sg8
g444
ssg209
(dp1526
g4
(dp1527
S'jos\xc3\xa9 s\xc3\xb3crates'
p1528
I0
sg974
I0
ssg7
I454
sg8
g209
ssg1417
(dp1529
g4
(dp1530
S'pedro passos coelho'
p1531
I0
sS'rui moreira'
p1532
I3
sS'carlos c\xc3\xa9sar'
p1533
I1
sS'dias loureiro'
p1534
I0
ssg7
I989
sg8
g1417
ssg1352
(dp1535
g4
(dp1536
S'silva ribeiro'
p1537
I0
sS'rui santos'
p1538
I0
sS'jorge baptista'
p1539
I0
ssg7
I68
sg8
g1352
ssg1005
(dp1540
g4
(dp1541
S'maria lu\xc3\xads albuquerque'
p1542
I0
ssg7
I40
sg8
g1005
ssg89
(dp1543
g4
(dp1544
g85
I0
ssg7
I153
sg8
g89
ssg1423
(dp1545
g4
(dp1546
S'pedro passos coelho'
p1547
I0
ssg7
I103
sg8
g1423
ssg691
(dp1548
g4
(dp1549
S'pedro passos coelho'
p1550
I0
sS'manchester united'
p1551
I79
ssg7
I859
sg8
g691
ssS'barack obama'
p1552
(dp1553
g4
(dp1554
S'an\xc3\xadbal cavaco silva'
p1555
I0
sS'paulo portas'
p1556
I0
sS'v\xc3\xadtor pereira'
p1557
I0
sg613
I0
sS'lu\xc3\xads amado'
p1558
I4
sS'assun\xc3\xa7\xc3\xa3o cristas'
p1559
I0
ssg7
I2981
sg8
g1552
ssg945
(dp1560
g4
(dp1561
S'pedro passos coelho'
p1562
I0
sS'm\xc3\xa1rio soares'
p1563
I0
ssg7
I4
sg8
g945
ssg755
(dp1564
g4
(dp1565
S'jorge jesus'
p1566
I0
sg751
I0
ssg7
I166
sg8
g755
ssg490
(dp1567
g4
(dp1568
g487
I0
ssg7
I3601
sg8
g490
ssg1195
(dp1569
g4
(dp1570
S'paulo mota'
p1571
I22
sS'arm\xc3\xa9nio carlos'
p1572
I1
sS'ant\xc3\xb3nio jos\xc3\xa9'
p1573
I4
ssg7
I817
sg8
g1195
ssg871
(dp1574
g4
(dp1575
g865
I0
sS'paulo portas'
p1576
I24
sS'miguel relvas'
p1577
I2
sS'jos\xc3\xa9 pacheco pereira'
p1578
I0
sS'ant\xc3\xb3nio costa'
p1579
I57
ssg7
I2874
sg8
g871
ssg702
(dp1580
g4
(dp1581
S'paulo portas'
p1582
I0
sS'paul krugman'
p1583
I0
sg1492
I0
sS'rui tavares'
p1584
I0
sS'nicol\xc3\xa1s maduro'
p1585
I0
sg779
I0
ssg7
I77
sg8
g702
ssg569
(dp1586
g4
(dp1587
g566
I5
ssg7
I112
sg8
g569
ssg321
(dp1588
g4
(dp1589
g318
I0
ssg7
I92
sg8
g321
ssS'nuno crato'
p1590
(dp1591
g4
(dp1592
S'v\xc3\xadtor pereira'
p1593
I0
ssg7
I2017
sg8
g1590
ssg1396
(dp1594
g4
(dp1595
S'nuno esp\xc3\xadrito santo'
p1596
I0
ssg7
I166
sg8
g1396
ssS'paulo portas'
p1597
(dp1598
g4
(dp1599
S'pedro passos coelho'
p1600
I11
sS'f\xc3\xa1bio coentr\xc3\xa3o'
p1601
I0
sg747
I1
sg15
I23
sg334
I0
sg1081
I7
sS'jer\xc3\xb3nimo sousa'
p1602
I26
sg144
I0
sS'ant\xc3\xb3nio jos\xc3\xa9'
p1603
I3
sS'neg\xc3\xb3cios estrangeiros'
p1604
I17
sg1481
I0
sg1272
I0
sS'jos\xc3\xa9 s\xc3\xb3crates'
p1605
I28
sg225
I0
sS'v\xc3\xadtor gaspar'
p1606
I16
sS'pires lima'
p1607
I25
sS'an\xc3\xadbal cavaco silva'
p1608
I0
sg885
I0
sg791
I0
sg703
I4
sg1010
I0
sS'barack obama'
p1609
I0
sS'assun\xc3\xa7\xc3\xa3o cristas'
p1610
I32
sS'alvaro pereira'
p1611
I4
sS'cristiano ronaldo'
p1612
I2
sg1027
I4
sS'miguel relvas'
p1613
I14
sg730
I8
sg920
I1
sg1488
I3
sS'rui rio'
p1614
I24
sg1058
I0
sS'miguel poiares maduro'
p1615
I0
sS's\xc3\xa1 carneiro'
p1616
I7
sg1511
I1
ssg7
I7248
sg8
g1597
ssg233
(dp1617
g4
(dp1618
S'pedro passos coelho'
p1619
I0
sg480
I0
sg229
I0
sS'miguel relvas'
p1620
I0
ssg7
I17
sg8
g233
ssg1127
(dp1621
g4
(dp1622
g1124
I0
ssg7
I445
sg8
g1127
ssg1246
(dp1623
g4
(dp1624
S'nicolau santos'
p1625
I1
ssg7
I90
sg8
g1246
ssg1448
(dp1626
g4
(dp1627
S'pedro passos coelho'
p1628
I0
ssg7
I54
sg8
g1448
ssg1406
(dp1629
g4
(dp1630
S'pedro passos coelho'
p1631
I0
ssg7
I608
sg8
g1406
ssg161
(dp1632
g4
(dp1633
S'miguel relvas'
p1634
I0
sS's\xc3\xb3nia ara\xc3\xbajo'
p1635
I0
sg1590
I0
sg1034
I12
sS'lu\xc3\xads filipe'
p1636
I13
sg1552
I0
sS'paulo bento'
p1637
I8
sS'sporting braga'
p1638
I16
ssg7
I7344
sg8
g161
ssg612
(dp1639
g4
(dp1640
g607
I0
sg551
I0
ssg7
I131
sg8
g612
ssg1057
(dp1641
g4
(dp1642
S'joachim low'
p1643
I0
ssg7
I28
sg8
g1057
ssg155
(dp1644
g4
(dp1645
g151
I0
sS'ant\xc3\xb3nio costa'
p1646
I2
ssg7
I216
sg8
g155
ssg1207
(dp1647
g4
(dp1648
g1204
I0
sg570
I0
sg385
I0
ssg7
I534
sg8
g1207
ssS'jos\xc3\xa9 mariano gago'
p1649
(dp1650
g4
(dp1651
S'osama bin laden'
p1652
I0
ssg7
I14
sg8
g1649
ssg54
(dp1653
g4
(dp1654
S'an\xc3\xadbal cavaco silva'
p1655
I0
sS'daniel oliveira'
p1656
I2
sg51
I2
ssg7
I1080
sg8
g54
ssg279
(dp1657
g4
(dp1658
S'an\xc3\xadbal cavaco silva'
p1659
I1
sS'jorge sampaio'
p1660
I42
sS'jos\xc3\xa9 pacheco pereira'
p1661
I0
ssg7
I1211
sg8
g279
ssg126
(dp1662
g4
(dp1663
S'nuno melo'
p1664
I17
sS'pedro silva pereira'
p1665
I1
sg121
I19
ssg7
I4313
sg8
g126
ssg710
(dp1666
g4
(dp1667
g707
I0
ssg7
I14
sg8
g710
ssg306
(dp1668
g4
(dp1669
S'bruno carvalho'
p1670
I16
ssg7
I219
sg8
g306
ssg656
(dp1671
g4
(dp1672
g653
I1
ssg7
I65
sg8
g656
ssg1474
(dp1673
g4
(dp1674
S'rui patr\xc3\xadcio'
p1675
I0
sS'cristiano ronaldo'
p1676
I1
ssg7
I330
sg8
g1474
ssg878
(dp1677
g4
(dp1678
S'an\xc3\xadbal cavaco silva'
p1679
I0
sS'paulo portas'
p1680
I25
sS'bruno carvalho'
p1681
I4
sg640
I0
sS'hillary clinton'
p1682
I0
sg872
I16
ssg7
I3697
sg8
g878
ssg1652
(dp1683
g4
(dp1684
g1649
I0
sg181
I2
ssg7
I114
sg8
g1652
ssg261
(dp1685
g4
(dp1686
S'an\xc3\xadbal cavaco silva'
p1687
I0
ssg7
I1436
sg8
g261
ssg1353
(dp1688
g4
(dp1689
S'silva ribeiro'
p1690
I0
sS'joaquim rita'
p1691
I0
sS'rui santos'
p1692
I0
ssg7
I73
sg8
g1353
ssg451
(dp1693
g4
(dp1694
S'ant\xc3\xb3nio costa'
p1695
I0
ssg7
I883
sg8
g451
ssg216
(dp1696
g4
(dp1697
S'jos\xc3\xa9 s\xc3\xb3crates'
p1698
I0
sS'whitney houston'
p1699
I1
ssg7
I1429
sg8
g216
ssg193
(dp1700
g4
(dp1701
g190
I31
ssg7
I117
sg8
g193
ssg1635
(dp1702
g4
(dp1703
S'v\xc3\xadtor pereira'
p1704
I0
ssg7
I88
sg8
g1635
ssg1404
(dp1705
g4
(dp1706
S'pedro passos coelho'
p1707
I0
ssg7
I357
sg8
g1404
ssg277
(dp1708
g4
(dp1709
S'an\xc3\xadbal cavaco silva'
p1710
I0
ssg7
I72
sg8
g277
ssg1601
(dp1711
g4
(dp1712
S'pedro passos coelho'
p1713
I1
sg1597
I0
ssg7
I1818
sg8
g1601
ssg666
(dp1714
g4
(dp1715
S'edson athayde'
p1716
I0
ssg7
I39
sg8
g666
ssg1066
(dp1717
g4
(dp1718
S'isaltino morais'
p1719
I0
ssg7
I74
sg8
g1066
ssg1295
(dp1720
g4
(dp1721
S'jorge jesus'
p1722
I16
ssg7
I254
sg8
g1295
ssg912
(dp1723
g4
(dp1724
g909
I28
ssg7
I348
sg8
g912
ssg1271
(dp1725
g4
(dp1726
g1268
I3
ssg7
I85
sg8
g1271
ssg1052
(dp1727
g4
(dp1728
S'domingos duarte lima'
p1729
I0
ssg7
I33
sg8
g1052
ssg1462
(dp1730
g4
(dp1731
g1459
I1
sS'lu\xc3\xads filipe'
p1732
I0
ssg7
I67
sg8
g1462
ssg450
(dp1733
g4
(dp1734
S'ant\xc3\xb3nio costa'
p1735
I2
ssg7
I36
sg8
g450
ssg883
(dp1736
g4
(dp1737
S'lu\xc3\xads marques mendes'
p1738
I0
ssg7
I23
sg8
g883
ssg266
(dp1739
g4
(dp1740
S'an\xc3\xadbal cavaco silva'
p1741
I0
ssg7
I900
sg8
g266
ssg1285
(dp1742
g4
(dp1743
g1282
I592
ssg7
I1348
sg8
g1285
ssg269
(dp1744
g4
(dp1745
S'an\xc3\xadbal cavaco silva'
p1746
I0
ssg7
I1111
sg8
g269
ssg272
(dp1747
g4
(dp1748
S'an\xc3\xadbal cavaco silva'
p1749
I0
sS'marco ant\xc3\xb3nio'
p1750
I1
ssg7
I2590
sg8
g272
ssg1682
(dp1751
g4
(dp1752
S'pires lima'
p1753
I0
ssg7
I1966
sg8
g1682
ssg278
(dp1754
g4
(dp1755
S'an\xc3\xadbal cavaco silva'
p1756
I0
sS'jer\xc3\xb3nimo sousa'
p1757
I4
sS'rui machete'
p1758
I0
sS'manuel alegre'
p1759
I11
ssg7
I533
sg8
g278
ssg280
(dp1760
g4
(dp1761
S'an\xc3\xadbal cavaco silva'
p1762
I0
sS'oliveira costa'
p1763
I0
ssg7
I302
sg8
g280
ssg679
(dp1764
g4
(dp1765
S'assun\xc3\xa7\xc3\xa3o esteves'
p1766
I12
ssg7
I1335
sg8
g679
ss.