(dp1
S'carlos mata'
p2
(dp3
S'verbetes'
p4
(dp5
S'ant\xc3\xb3nio almeida henriques'
p6
I12
ssS'total_occurences'
p7
I3906
sS'official_name'
p8
g2
ssS'arm\xc3\xa9nio carlos'
p9
(dp10
g4
(dp11
S'jorge jesus'
p12
I50
sS'abebe selassie'
p13
I14
sS'jo\xc3\xa3o soares'
p14
I236
ssg7
I11502
sg8
g9
ssS'nuno melo'
p15
(dp16
g4
(dp17
S'paulo portas'
p18
I1554
sS'vitor const\xc3\xa2ncio'
p19
I87
sS'parlamento europeu'
p20
I715
ssg7
I7276
sg8
g15
ssS'jos\xc3\xa9 rodrigues'
p21
(dp22
g4
(dp23
S'ant\xc3\xb3nio costa'
p24
I4550
sS'alexandre quintanilha'
p25
I139
ssg7
I31753
sg8
g21
ssS'j\xc3\xbalia pinheiro'
p26
(dp27
g4
(dp28
S'teresa guilherme'
p29
I75
sS'jo\xc3\xa3o ferreira'
p30
I34
ssg7
I904
sg8
g26
ssS'rafa ben\xc3\xadtez'
p31
(dp32
g4
(dp33
S'pedro passos coelho'
p34
I1
sS'bruno alves'
p35
I5
sS'cristiano ronaldo'
p36
I511
ssg7
I3032
sg8
g31
ssS'concei\xc3\xa7\xc3\xa3o lino'
p37
(dp38
g4
(dp39
S'f\xc3\xa1tima lopes'
p40
I31
ssg7
I340
sg8
g37
ssS'lorenzo carvalho'
p41
(dp42
g4
(dp43
S'judite sousa'
p44
I27
ssg7
I137
sg8
g41
ssS'paulo penedos'
p45
(dp46
g4
(dp47
S'david luiz'
p48
I1
ssg7
I2424
sg8
g45
ssg6
(dp49
g4
(dp50
g2
I12
ssg7
I1899
sg8
g6
ssS'paulo teixeira'
p51
(dp52
g4
(dp53
S'francisco lou\xc3\xa7\xc3\xa3'
p54
I137
ssg7
I11029
sg8
g51
ssS'ant\xc3\xb3nio soares carneiro'
p55
(dp56
g4
(dp57
S's\xc3\xa1 carneiro'
p58
I500
ssg7
I904
sg8
g55
ssS'judite sousa'
p59
(dp60
g4
(dp61
S'pedro passos coelho'
p62
I203
sg41
I27
sS'fernando seara'
p63
I39
sS'paulo baldaia'
p64
I4
ssg7
I1800
sg8
g59
ssS'mick jagger'
p65
(dp66
g4
(dp67
S'ant\xc3\xb3nio costa'
p68
I21
ssg7
I1568
sg8
g65
ssS'raul castro'
p69
(dp70
g4
(dp71
S'jorge jesus'
p72
I66
ssg7
I5702
sg8
g69
ssS's\xc3\xa3o jorge'
p73
(dp74
g4
(dp75
S'an\xc3\xadbal cavaco silva'
p76
I532
ssg7
I102241
sg8
g73
ssS'carlos costa'
p77
(dp78
g4
(dp79
S'joseph blatter'
p80
I41
ssg7
I54768
sg8
g77
ssS'medina carreira'
p81
(dp82
g4
(dp83
S'pedro passos coelho'
p84
I138
ssg7
I1417
sg8
g81
ssS'maxi pereira'
p85
(dp86
g4
(dp87
S'jorge jesus'
p88
I6481
sS'stephen hawking'
p89
I1
sS'rui gomes'
p90
I348
ssg7
I13788
sg8
g85
ssS'jos\xc3\xa9 s\xc3\xa1 fernandes'
p91
(dp92
g4
(dp93
S'cunha rodrigues'
p94
I99
sS'eduardo souto de moura'
p95
I2
ssg7
I3122
sg8
g91
ssS's\xc3\xb3nia tavares'
p96
(dp97
g4
(dp98
S'bruno carvalho'
p99
I28
ssg7
I1228
sg8
g96
ssS'iker casillas'
p100
(dp101
g4
(dp102
S'pedro passos coelho'
p103
I7
sS'angela merkel'
p104
I2
sS'sara carbonero'
p105
I624
ssg7
I8209
sg8
g100
ssS'agostinho almeida santos'
p106
(dp107
g4
(dp108
S'm\xc3\xa1rio soares'
p109
I48
sS'ant\xc3\xb3nio marinho pinto'
p110
I3
sS'manuel alegre'
p111
I18
ssg7
I459
sg8
g106
ssS'mariana mort\xc3\xa1gua'
p112
(dp113
g4
(dp114
S'ricardo salgado'
p115
I378
ssg7
I3256
sg8
g112
ssS'eduardo souto de moura'
p116
(dp117
g4
(dp118
S'cunha rodrigues'
p119
I10
sS'jos\xc3\xa9 s\xc3\xa1 fernandes'
p120
I2
ssg7
I1725
sg8
g116
ssS'francisco assis'
p121
(dp122
g4
(dp123
S'paulo rangel'
p124
I770
sS'ant\xc3\xb3nio costa'
p125
I1869
sS'parlamento europeu'
p126
I976
ssg7
I11739
sg8
g121
ssS'gordon brown'
p127
(dp128
g4
(dp129
S'scotland yard'
p130
I24
ssg7
I1398
sg8
g127
ssS'gangnam style'
p131
(dp132
g4
(dp133
S'ravi shankar'
p134
I1
ssg7
I542
sg8
g131
ssS'rui alves'
p135
(dp136
g4
(dp137
S'fernando seara'
p138
I759
ssg7
I13805
sg8
g135
ssS'nuno rogeiro'
p139
(dp140
g4
(dp141
S'margaret thatcher'
p142
I0
sS'cl\xc3\xa1udio ramos'
p143
I0
ssg7
I178
sg8
g139
ssS'carlos moedas'
p144
(dp145
g4
(dp146
S'pedro passos coelho'
p147
I1297
sS'paulo portas'
p148
I780
sS'maria lu\xc3\xads albuquerque'
p149
I704
sS'v\xc3\xadtor gaspar'
p150
I795
ssg7
I6445
sg8
g144
ssS'f\xc3\xa1tima campos'
p151
(dp152
g4
(dp153
S'ant\xc3\xb3nio costa'
p154
I169
sS'jos\xc3\xa9 lello'
p155
I10
ssg7
I1595
sg8
g151
ssS'paulo bento'
p156
(dp157
g4
(dp158
S'an\xc3\xadbal cavaco silva'
p159
I141
sS'pedro passos coelho'
p160
I776
sS'v\xc3\xadtor pereira'
p161
I620
sS'rui patr\xc3\xadcio'
p162
I3054
sS'abebe selassie'
p163
I5
sS'manuela moura guedes'
p164
I10
sS'ant\xc3\xb3nio costa'
p165
I970
sS'cristiano ronaldo'
p166
I8008
ssg7
I39472
sg8
g156
ssS'cristina ferreira'
p167
(dp168
g4
(dp169
S'jos\xc3\xa9 s\xc3\xb3crates'
p170
I71
sS'miguel relvas'
p171
I23
sS'maria lu\xc3\xads albuquerque'
p172
I33
ssg7
I4004
sg8
g167
ssS'ant\xc3\xb3nio borges'
p173
(dp174
g4
(dp175
S'pedro passos coelho'
p176
I569
sS'wolfgang schauble'
p177
I4
sS'jer\xc3\xb3nimo sousa'
p178
I122
sS'ricardo salgado'
p179
I45
sS'v\xc3\xadtor gaspar'
p180
I291
ssg7
I7676
sg8
g173
ssS'whitney houston'
p181
(dp182
g4
(dp183
S'domingos paci\xc3\xaancia'
p184
I1
sS'osama bin laden'
p185
I11
ssg7
I900
sg8
g181
ssS'paula teixeira'
p186
(dp187
g4
(dp188
S'lu\xc3\xads filipe'
p189
I242
ssg7
I10337
sg8
g186
ssS'carlos mendes'
p190
(dp191
g4
(dp192
S'fernando tordo'
p193
I201
ssg7
I12146
sg8
g190
ssS'philip seymour hoffman'
p194
(dp195
g4
(dp196
S'pedro passos coelho'
p197
I0
ssg7
I365
sg8
g194
ssS'lionel messi'
p198
(dp199
g4
(dp200
S'v\xc3\xadtor gaspar'
p201
I2
sS'cristiano ronaldo'
p202
I9233
ssg7
I18781
sg8
g198
ssS'jos\xc3\xa9 s\xc3\xb3crates'
p203
(dp204
g4
(dp205
S'an\xc3\xadbal cavaco silva'
p206
I1101
sS'pedro passos coelho'
p207
I9174
sS'paulo portas'
p208
I4581
sS'rui rangel'
p209
I238
sS'paul krugman'
p210
I46
sS'm\xc3\xa1rio soares'
p211
I3225
sS'armando vara'
p212
I1883
sS'lu\xc3\xads amado'
p213
I1489
sS'carlos alexandre'
p214
I2759
sS'fernando pinto monteiro'
p215
I222
sS'domingos paci\xc3\xaancia'
p216
I18
sS'artur santos silva'
p217
I101
sS'miguel relvas'
p218
I1387
sS'noronha do nascimento'
p219
I623
sS'lu\xc3\xads bernardo'
p220
I140
sg167
I71
sS'ant\xc3\xb3nio braga'
p221
I881
sS'ant\xc3\xb3nio costa'
p222
I6877
sS'miguel sousa'
p223
I881
sS'pedro silva pereira'
p224
I1870
ssg7
I77217
sg8
g203
ssS'afonso albuquerque'
p225
(dp226
g4
(dp227
S'paulo portas'
p228
I49
ssg7
I1614
sg8
g225
ssS'francisco pinto balsem\xc3\xa3o'
p229
(dp230
g4
(dp231
S'ricardo costa'
p232
I116
sS'vicente jorge silva'
p233
I15
ssg7
I4159
sg8
g229
ssS'an\xc3\xadbal cavaco silva'
p234
(dp235
g4
(dp236
S'm\xc3\xa1rio soares'
p237
I688
sS'jer\xc3\xb3nimo sousa'
p238
I326
sS'teodoro obiang nguema'
p239
I7
sS'wolfgang schauble'
p240
I6
sS'rita pereira'
p241
I24
sS'alberto jo\xc3\xa3o jardim'
p242
I229
sS'gon\xc3\xa7alo amaral'
p243
I37
sS'marcelo rebelo'
p244
I704
sS'catarina martins'
p245
I201
sS'paulo bento'
p246
I141
sS'dias loureiro'
p247
I71
sS'angela merkel'
p248
I169
sS'manuel alegre'
p249
I477
sS'eduardo pereira'
p250
I41
sS'v\xc3\xadtor s\xc3\xa3o bento'
p251
I81
sS'jorge mendes'
p252
I103
sS'daniel oliveira'
p253
I42
sS'jos\xc3\xa9 s\xc3\xb3crates'
p254
I1101
sS'jorge sampaio'
p255
I600
sS'cristiano ronaldo'
p256
I248
sg73
I532
sS'pires lima'
p257
I139
sS'nicolau santos'
p258
I10
sS'pedro passos coelho'
p259
I2751
sS'paulo portas'
p260
I888
sS'michelle brito'
p261
I0
sS'mac\xc3\xa1rio correia'
p262
I11
sS'd. manuel clemente'
p263
I48
sS'maria lu\xc3\xads albuquerque'
p264
I159
sS'jos\xc3\xa9 saramago'
p265
I54
sS'joana vasconcelos'
p266
I27
sS'francisco lou\xc3\xa7\xc3\xa3'
p267
I170
sS'barack obama'
p268
I278
sS'raul meireles'
p269
I1
sS'assun\xc3\xa7\xc3\xa3o esteves'
p270
I439
sS'ant\xc3\xb3nio costa'
p271
I1279
sS'carlos c\xc3\xa9sar'
p272
I161
sS'lu\xc3\xads filipe'
p273
I254
sS'oliveira costa'
p274
I228
sS'papa francisco'
p275
I194
sS'fernando nobre'
p276
I287
sS'duarte pio'
p277
I9
sS'franquelim alves'
p278
I5
sS'nelson mandela'
p279
I58
sS'edite estrela'
p280
I15
sS'dur\xc3\xa3o barroso'
p281
I458
sS'jo\xc3\xa3o galamba'
p282
I23
sS'francisco lopes'
p283
I334
sS'rui gomes'
p284
I59
sS'paulo futre'
p285
I6
ssg7
I17214
sg8
g234
ssS'manuel ferreira leite'
p286
(dp287
g4
(dp288
S'pedro passos coelho'
p289
I273
sS'mota amaral'
p290
I78
sS'paulo mota'
p291
I121
sS'jos\xc3\xa9 pacheco pereira'
p292
I88
ssg7
I1544
sg8
g286
ssS'bruno carvalho'
p293
(dp294
g4
(dp295
g96
I28
sS'costa lu\xc3\xads'
p296
I1437
sS'rui patr\xc3\xadcio'
p297
I2307
sS'maria lu\xc3\xads albuquerque'
p298
I36
sS'lu\xc3\xads filipe vieira'
p299
I1443
sS'lu\xc3\xads godinho lopes'
p300
I520
sS'marco silva'
p301
I3083
sS'jorge jesus'
p302
I3318
sS'jos\xc3\xa9 couceiro'
p303
I1005
sS'fernando ruas'
p304
I118
sS'dur\xc3\xa3o barroso'
p305
I59
sS'carlos severino'
p306
I757
sS'ant\xc3\xb3nio costa'
p307
I813
sS'pires lima'
p308
I115
ssg7
I28218
sg8
g293
ssS'mariano rajoy'
p309
(dp310
g4
(dp311
S'pedro passos coelho'
p312
I1116
ssg7
I11814
sg8
g309
ssS'jorge silva carvalho'
p313
(dp314
g4
(dp315
S'isabel santos'
p316
I271
sS'miguel relvas'
p317
I678
ssg7
I7609
sg8
g313
ssS'jos\xc3\xa9 sousa cintra'
p318
(dp319
g4
(dp320
S'mark knopfler'
p321
I0
ssg7
I428
sg8
g318
ssS'lu\xc3\xads mira amaral'
p322
(dp323
g4
(dp324
S'rui machete'
p325
I9
ssg7
I1016
sg8
g322
ssS'cl\xc3\xa1udia vieira'
p326
(dp327
g4
(dp328
S'v\xc3\xadtor gaspar'
p329
I14
ssg7
I1903
sg8
g326
ssS'robert rodriguez'
p330
(dp331
g4
(dp332
S'neg\xc3\xb3cios estrangeiros'
p333
I1
ssg7
I352
sg8
g330
ssS'ant\xc3\xb3nio lobo xavier'
p334
(dp335
g4
(dp336
S'paulo portas'
p337
I242
sS'ant\xc3\xb3nio costa'
p338
I489
ssg7
I1668
sg8
g334
ssg48
(dp339
g4
(dp340
S'carlos queiroz'
p341
I55
sS'manchester united'
p342
I848
sS'lu\xc3\xads filipe'
p343
I801
sg45
I1
ssg7
I9709
sg8
g48
ssS'v\xc3\xadtor bento'
p344
(dp345
g4
(dp346
S'ricardo salgado'
p347
I1349
sS'nuno esp\xc3\xadrito santo'
p348
I107
ssg7
I8250
sg8
g344
ssS'ant\xc3\xb3nio vieira'
p349
(dp350
g4
(dp351
S'impulso jovem'
p352
I25
ssg7
I19388
sg8
g349
ssS'xi jinping'
p353
(dp354
g4
(dp355
S'm\xc3\xa1rio soares'
p356
I5
ssg7
I4079
sg8
g353
ssg239
(dp357
g4
(dp358
S'an\xc3\xadbal cavaco silva'
p359
I7
sS'jos\xc3\xa9 saramago'
p360
I0
ssg7
I455
sg8
g239
ssS's\xc3\xa9rgio sousa pinto'
p361
(dp362
g4
(dp363
S'ana catarina'
p364
I212
ssg7
I2480
sg8
g361
ssS'carlos queiroz'
p365
(dp366
g4
(dp367
S'manchester united'
p368
I668
sS'lu\xc3\xads filipe'
p369
I212
sS'david luiz'
p370
I55
ssg7
I11213
sg8
g365
ssg265
(dp371
g4
(dp372
S'an\xc3\xadbal cavaco silva'
p373
I54
sS'teodoro obiang nguema'
p374
I0
ssg7
I7572
sg8
g265
ssS'alvaro pereira'
p375
(dp376
g4
(dp377
S'pedro passos coelho'
p378
I1785
sS'v\xc3\xadtor gaspar'
p379
I1458
sS'paulo portas'
p380
I1354
ssg7
I24915
sg8
g375
ssS'woody allen'
p381
(dp382
g4
(dp383
S'ant\xc3\xb3nio costa'
p384
I50
ssg7
I1417
sg8
g381
ssS'afonso costa'
p385
(dp386
g4
(dp387
S'ant\xc3\xb3nio vitorino'
p388
I1092
sS'jos\xc3\xa9 veiga sim\xc3\xa3o'
p389
I6
sS'te\xc3\xb3filo braga'
p390
I40
ssg7
I7360
sg8
g385
ssS'jorge pulido valente'
p391
(dp392
g4
(dp393
S'miguel sousa'
p394
I25
ssg7
I1513
sg8
g391
ssS'tim krul'
p395
(dp396
g4
(dp397
S'louis van gaal'
p398
I72
sS'ant\xc3\xb3nio costa'
p399
I1
ssg7
I359
sg8
g395
ssS'manuel fernandes'
p400
(dp401
g4
(dp402
S'rui santos'
p403
I1148
ssg7
I19211
sg8
g400
ssS'lu\xc3\xads filipe'
p404
(dp405
g4
(dp406
S'an\xc3\xadbal cavaco silva'
p407
I254
sS'al pacino'
p408
I2
sS'manchester united'
p409
I462
sg365
I212
sS'rui moreira'
p410
I1994
sS'v\xc3\xadtor pereira'
p411
I1397
sS'isaltino morais'
p412
I60
sg186
I242
sS'pol pot'
p413
I0
sS'jorge jesus'
p414
I5195
sS'benni mccarthy'
p415
I0
sS'david luiz'
p416
I801
sS'angela merkel'
p417
I52
ssg7
I46347
sg8
g404
ssg301
(dp418
g4
(dp419
S'jorge jesus'
p420
I2424
sS'bruno carvalho'
p421
I3083
ssg7
I47550
sg8
g301
ssS'nicolas sarkozy'
p422
(dp423
g4
(dp424
S'isaltino morais'
p425
I3
ssg7
I12825
sg8
g422
ssS'f\xc3\xa1bio paim'
p426
(dp427
g4
(dp428
S'pedro passos coelho'
p429
I0
ssg7
I136
sg8
g426
ssS'paula rego'
p430
(dp431
g4
(dp432
S'pedro passos coelho'
p433
I43
ssg7
I2374
sg8
g430
ssS'ant\xc3\xb3nio costa'
p434
(dp435
g4
(dp436
S'pedro passos coelho'
p437
I10829
sS'jer\xc3\xb3nimo sousa'
p438
I2805
sS'ricardo salgado'
p439
I833
sS'eduardo ferro rodrigues'
p440
I568
sS'edson athayde'
p441
I26
sS'f\xc3\xa1tima campos'
p442
I169
sg381
I50
sS'marcelo rebelo'
p443
I5785
sS'catarina martins'
p444
I3142
sS'paulo bento'
p445
I970
sS'fernando pessoa'
p446
I1136
sg21
I4550
sS'ana gomes'
p447
I1450
sg203
I6877
sg65
I21
sS'louis van gaal'
p448
I10
sS'an\xc3\xadbal cavaco silva'
p449
I1279
sS'eurico brilhante dias'
p450
I357
sg293
I813
sS'juan carlos'
p451
I250
sS'tim krul'
p452
I1
sS'jorge jesus'
p453
I1091
sS'jos\xc3\xa9 pacheco pereira'
p454
I523
sS'jos\xc3\xa9 lello'
p455
I341
sS'ant\xc3\xb3nio lobo xavier'
p456
I489
sS'jorge coelho'
p457
I3197
sS'bas\xc3\xadlio horta'
p458
I322
sS'rui rio'
p459
I2036
sS'dur\xc3\xa3o barroso'
p460
I1186
sS'francisco assis'
p461
I1869
ssg7
I111260
sg8
g434
ssS'paulo j\xc3\xbalio'
p462
(dp463
g4
(dp464
S'miguel relvas'
p465
I427
ssg7
I7250
sg8
g462
ssS'ted cruz'
p466
(dp467
g4
(dp468
S'cl\xc3\xa1udio ramos'
p469
I0
sS'rita pereira'
p470
I0
ssg7
I1337
sg8
g466
ssS'henrique gomes'
p471
(dp472
g4
(dp473
S'\xc3\xa1lvaro santos pereira'
p474
I891
ssg7
I4995
sg8
g471
ssS'quim barreiros'
p475
(dp476
g4
(dp477
S'rui moreira'
p478
I25
sS'fernando pessoa'
p479
I16
ssg7
I1857
sg8
g475
ssS'ricardo costa'
p480
(dp481
g4
(dp482
S'dur\xc3\xa3o barroso'
p483
I175
sS'francisco pinto balsem\xc3\xa3o'
p484
I116
sS'angel di mar\xc3\xada'
p485
I35
sS'vicente jorge silva'
p486
I236
ssg7
I27835
sg8
g480
ssS'paulo campos'
p487
(dp488
g4
(dp489
S'manchester city'
p490
I11
ssg7
I10440
sg8
g487
ssS'valentim loureiro'
p491
(dp492
g4
(dp493
S'pedro proen\xc3\xa7a'
p494
I12
ssg7
I1426
sg8
g491
ssg316
(dp495
g4
(dp496
g313
I271
ssg7
I13935
sg8
g316
ssg90
(dp497
g4
(dp498
S'pedro passos coelho'
p499
I279
sS'an\xc3\xadbal cavaco silva'
p500
I59
sS'maxi pereira'
p501
I348
ssg7
I17496
sg8
g90
ssg262
(dp502
g4
(dp503
S'an\xc3\xadbal cavaco silva'
p504
I11
ssg7
I4193
sg8
g262
ssg438
(dp505
g4
(dp506
S'an\xc3\xadbal cavaco silva'
p507
I326
sS'pedro passos coelho'
p508
I3015
sS'paulo portas'
p509
I2340
sS'miguel relvas'
p510
I263
sS'franquelim alves'
p511
I25
sS'catarina martins'
p512
I1651
sS'nicol\xc3\xa1s maduro'
p513
I7
sS'v\xc3\xadtor gaspar'
p514
I388
sS'ant\xc3\xb3nio costa'
p515
I2805
sg173
I122
ssg7
I19798
sg8
g438
ssS'lu\xc3\xads pita ameixa'
p516
(dp517
g4
(dp518
S'pedro passos coelho'
p519
I40
ssg7
I692
sg8
g516
ssS'h\xc3\xa9lder postiga'
p520
(dp521
g4
(dp522
S'cristiano ronaldo'
p523
I2965
ssg7
I9342
sg8
g520
ssS'angela merkel'
p524
(dp525
g4
(dp526
S'pedro passos coelho'
p527
I2158
sS'an\xc3\xadbal cavaco silva'
p528
I169
sS'iker casillas'
p529
I2
sg404
I52
sS'sara carbonero'
p530
I0
sS'm\xc3\xa1rio soares'
p531
I408
sS'wolfgang schauble'
p532
I1535
sS'ant\xc3\xb3nio guterres'
p533
I268
sS'ant\xc3\xb3nio jos\xc3\xa9'
p534
I820
sS'dilma rousseff'
p535
I589
sS'yannick djal\xc3\xb3'
p536
I1
sS'luciana abreu'
p537
I0
sS'v\xc3\xadtor gaspar'
p538
I280
sS'isabel jonet'
p539
I12
ssg7
I34801
sg8
g524
ssS'zlatan ibrahimovic'
p540
(dp541
g4
(dp542
S'cristiano ronaldo'
p543
I1386
ssg7
I5563
sg8
g540
ssS'mario draghi'
p544
(dp545
g4
(dp546
S'pedro passos coelho'
p547
I460
sS'ricardo quaresma'
p548
I0
ssg7
I14114
sg8
g544
ssg119
(dp549
g4
(dp550
g91
I99
sg116
I10
ssg7
I2934
sg8
g119
ssS'jos\xc3\xa9 maria del nido'
p551
(dp552
g4
(dp553
S'ricardo salgado'
p554
I0
sS'm\xc3\xa1rio crespo'
p555
I0
ssg7
I253
sg8
g551
ssS'santo tirso'
p556
(dp557
g4
(dp558
S'ant\xc3\xb3nio jos\xc3\xa9'
p559
I425
ssg7
I8797
sg8
g556
ssg398
(dp560
g4
(dp561
S'ant\xc3\xb3nio costa'
p562
I10
sg395
I72
ssg7
I4210
sg8
g398
ssg285
(dp563
g4
(dp564
S'an\xc3\xadbal cavaco silva'
p565
I6
ssg7
I2187
sg8
g285
ssS'impulso jovem'
p566
(dp567
g4
(dp568
g349
I25
sS'miguel gon\xc3\xa7alves'
p569
I71
ssg7
I2421
sg8
g566
ssS'te\xc3\xb3filo braga'
p570
(dp571
g4
(dp572
S'ant\xc3\xb3nio vitorino'
p573
I16
sS'jos\xc3\xa9 veiga sim\xc3\xa3o'
p574
I0
sS'afonso costa'
p575
I40
ssg7
I1458
sg8
g570
ssg469
(dp576
g4
(dp577
S'nuno rogeiro'
p578
I0
sS'rita pereira'
p579
I28
sg466
I0
ssg7
I1354
sg8
g469
ssS'manuela moura guedes'
p580
(dp581
g4
(dp582
S'jos\xc3\xa9 eduardo bettencourt'
p583
I1
sS'paulo bento'
p584
I10
ssg7
I1093
sg8
g580
ssS'vitor const\xc3\xa2ncio'
p585
(dp586
g4
(dp587
S'dur\xc3\xa3o barroso'
p588
I340
sS'papa francisco'
p589
I5
sS'steve jobs'
p590
I1
sS'nuno melo'
p591
I87
ssg7
I3981
sg8
g585
ssS'demis roussos'
p592
(dp593
g4
(dp594
S'v\xc3\xadtor gaspar'
p595
I0
ssg7
I45
sg8
g592
ssg40
(dp596
g4
(dp597
g37
I31
ssg7
I3348
sg8
g40
ssS'jo\xc3\xa3o proen\xc3\xa7a'
p598
(dp599
g4
(dp600
S'jorge lac\xc3\xa3o'
p601
I40
ssg7
I10551
sg8
g598
ssS'ana drago'
p602
(dp603
g4
(dp604
S'daniel oliveira'
p605
I316
sS'rui tavares'
p606
I472
ssg7
I2684
sg8
g602
ssS'jo\xc3\xa3o bai\xc3\xa3o'
p607
(dp608
g4
(dp609
S'catarina furtado'
p610
I34
sS'fernando mendes'
p611
I53
sS'm\xc3\xa1rio crespo'
p612
I0
ssg7
I1642
sg8
g607
ssS'ana avoila'
p613
(dp614
g4
(dp615
S'barack obama'
p616
I2
ssg7
I3180
sg8
g613
ssS'em\xc3\xaddio rangel'
p617
(dp618
g4
(dp619
S'rui pedro'
p620
I72
ssg7
I616
sg8
g617
ssS'pedro filipe soares'
p621
(dp622
g4
(dp623
S'catarina martins'
p624
I948
ssg7
I7972
sg8
g621
ssS'jaime nogueira pinto'
p625
(dp626
g4
(dp627
S'pedro passos coelho'
p628
I11
sS'maria jos\xc3\xa9'
p629
I90
sS'assun\xc3\xa7\xc3\xa3o esteves'
p630
I10
ssg7
I289
sg8
g625
ssS'bill gates'
p631
(dp632
g4
(dp633
S'rui machete'
p634
I1
ssg7
I3089
sg8
g631
ssS'david carreira'
p635
(dp636
g4
(dp637
S'lu\xc3\xads mota soares'
p638
I12
sS'alberto martins'
p639
I39
ssg7
I7626
sg8
g635
ssS'rita pereira'
p640
(dp641
g4
(dp642
S'an\xc3\xadbal cavaco silva'
p643
I24
sS'cl\xc3\xa1udio ramos'
p644
I28
sS'pires lima'
p645
I62
sS'ted cruz'
p646
I0
ssg7
I5323
sg8
g640
ssg162
(dp647
g4
(dp648
S'bruno carvalho'
p649
I2307
sS'lu\xc3\xads godinho lopes'
p650
I90
sS'sim\xc3\xa3o sabrosa'
p651
I58
sS'cristiano ronaldo'
p652
I2746
sg156
I3054
ssg7
I19222
sg8
g162
ssS'matteo renzi'
p653
(dp654
g4
(dp655
S'beppe grillo'
p656
I99
ssg7
I2132
sg8
g653
ssS'lu\xc3\xads filipe vieira'
p657
(dp658
g4
(dp659
S'costa lu\xc3\xads'
p660
I3032
sS'bruno carvalho'
p661
I1443
ssg7
I19514
sg8
g657
ssg441
(dp662
g4
(dp663
S'pedro passos coelho'
p664
I6
sS'ant\xc3\xb3nio costa'
p665
I26
sS'ascenso sim\xc3\xb5es'
p666
I11
ssg7
I214
sg8
g441
ssg243
(dp667
g4
(dp668
S'an\xc3\xadbal cavaco silva'
p669
I37
ssg7
I1656
sg8
g243
ssS'assun\xc3\xa7\xc3\xa3o esteves'
p670
(dp671
g4
(dp672
S'an\xc3\xadbal cavaco silva'
p673
I439
sS'pedro passos coelho'
p674
I1505
sS'carlos carmo'
p675
I26
sS'maria jos\xc3\xa9'
p676
I414
sS'jaime nogueira pinto'
p677
I10
sS'lu\xc3\xads marques guedes'
p678
I153
sS'nuno santos'
p679
I174
ssg7
I7615
sg8
g670
ssg217
(dp680
g4
(dp681
S'jos\xc3\xa9 s\xc3\xb3crates'
p682
I101
sS'pedro silva pereira'
p683
I449
ssg7
I2967
sg8
g217
ssg35
(dp684
g4
(dp685
S'rafa ben\xc3\xadtez'
p686
I5
sS'cristiano ronaldo'
p687
I3358
ssg7
I16129
sg8
g35
ssg409
(dp688
g4
(dp689
S'carlos queiroz'
p690
I668
sS'alex ferguson'
p691
I7683
sS'lu\xc3\xads filipe'
p692
I462
sS'david luiz'
p693
I848
sS'pedro passos coelho'
p694
I125
ssg7
I50903
sg8
g409
ssg30
(dp695
g4
(dp696
g26
I34
sS'teresa guilherme'
p697
I137
ssg7
I53483
sg8
g30
ssg513
(dp698
g4
(dp699
S'jer\xc3\xb3nimo sousa'
p700
I7
sS'pedro santana lopes'
p701
I0
sS'miguel poiares maduro'
p702
I3
ssg7
I7688
sg8
g513
ssS'miguel cadilhe'
p703
(dp704
g4
(dp705
S'paulo portas'
p706
I101
ssg7
I1582
sg8
g703
ssS'social democrata'
p707
(dp708
g4
(dp709
S'mikhail gorbatchov'
p710
I6
ssg7
I72479
sg8
g707
ssS'm\xc3\xa1rio centeno'
p711
(dp712
g4
(dp713
S'maria lu\xc3\xads albuquerque'
p714
I677
ssg7
I7507
sg8
g711
ssS'joaquim pais jorge'
p715
(dp716
g4
(dp717
S'lu\xc3\xads marques mendes'
p718
I89
ssg7
I2604
sg8
g715
ssg660
(dp719
g4
(dp720
g657
I3032
sS'bruno carvalho'
p721
I1437
ssg7
I41502
sg8
g660
ssg394
(dp722
g4
(dp723
S'jos\xc3\xa9 s\xc3\xb3crates'
p724
I881
sg391
I25
ssg7
I19860
sg8
g394
ssS'jesualdo ferreira'
p725
(dp726
g4
(dp727
S'lu\xc3\xads godinho lopes'
p728
I45
sS'lu\xc3\xads figo'
p729
I24
ssg7
I12160
sg8
g725
ssS'papa francisco'
p730
(dp731
g4
(dp732
S'pedro passos coelho'
p733
I285
sS'an\xc3\xadbal cavaco silva'
p734
I194
sS'paulo portas'
p735
I397
sS'vitor const\xc3\xa2ncio'
p736
I5
sS'ant\xc3\xb3nio jos\xc3\xa9'
p737
I772
ssg7
I23882
sg8
g730
ssS'alberto jo\xc3\xa3o jardim'
p738
(dp739
g4
(dp740
S'pedro passos coelho'
p741
I2129
sS'an\xc3\xadbal cavaco silva'
p742
I229
sS'ant\xc3\xb3nio mexia'
p743
I10
ssg7
I17148
sg8
g738
ssg25
(dp744
g4
(dp745
S'jos\xc3\xa9 rodrigues'
p746
I139
ssg7
I622
sg8
g25
ssS'vasco louren\xc3\xa7o'
p747
(dp748
g4
(dp749
S'paulo portas'
p750
I55
ssg7
I3743
sg8
g747
ssS'fernando ulrich'
p751
(dp752
g4
(dp753
S'jorge jesus'
p754
I26
sS'joe biden'
p755
I1
sS'ricardo salgado'
p756
I833
ssg7
I7451
sg8
g751
ssS'teixeira santos'
p757
(dp758
g4
(dp759
S'v\xc3\xadtor gaspar'
p760
I1035
ssg7
I24338
sg8
g757
ssS'jorge barreto xavier'
p761
(dp762
g4
(dp763
S'pedro passos coelho'
p764
I268
ssg7
I3841
sg8
g761
ssS'luciana abreu'
p765
(dp766
g4
(dp767
S'dur\xc3\xa3o barroso'
p768
I1
sS'angela merkel'
p769
I0
sS'yannick djal\xc3\xb3'
p770
I268
ssg7
I669
sg8
g765
ssS'pedro proen\xc3\xa7a'
p771
(dp772
g4
(dp773
g491
I12
sS'rui moreira'
p774
I106
ssg7
I12117
sg8
g771
ssg255
(dp775
g4
(dp776
S'an\xc3\xadbal cavaco silva'
p777
I600
sS'nelson mandela'
p778
I216
ssg7
I12413
sg8
g255
ssS'morgan freeman'
p779
(dp780
g4
(dp781
S'miguel poiares maduro'
p782
I0
ssg7
I443
sg8
g779
ssS'ant\xc3\xb3nio marinho pinto'
p783
(dp784
g4
(dp785
S'joachim low'
p786
I0
sg106
I3
ssg7
I2140
sg8
g783
ssS'berta cabral'
p787
(dp788
g4
(dp789
S'pedro passos coelho'
p790
I459
ssg7
I4710
sg8
g787
ssS'xanana gusm\xc3\xa3o'
p791
(dp792
g4
(dp793
S'paulo portas'
p794
I20
sS'franco jara'
p795
I0
ssg7
I3185
sg8
g791
ssS'miguel relvas'
p796
(dp797
g4
(dp798
S'pedro passos coelho'
p799
I3870
sS'\xc3\xa1lvaro santos pereira'
p800
I764
sS'paulo portas'
p801
I1299
sS'jo\xc3\xa3o semedo'
p802
I134
sS'jos\xc3\xa9 s\xc3\xb3crates'
p803
I1387
sS'leonardo jardim'
p804
I0
sS'maria lu\xc3\xads albuquerque'
p805
I221
sS'v\xc3\xadtor pereira'
p806
I451
sS'jer\xc3\xb3nimo sousa'
p807
I263
sS'jorge silva carvalho'
p808
I678
sS'jos\xc3\xa9 pacheco pereira'
p809
I71
sS'jorge jesus'
p810
I76
sS'bruce springsteen'
p811
I1
sS'michael phelps'
p812
I0
sS'rui rio'
p813
I234
sS'cristina ferreira'
p814
I23
sS'sporting braga'
p815
I84
sS'v\xc3\xadtor gaspar'
p816
I1236
sg462
I427
sS'cristiano ronaldo'
p817
I64
sS'vicente jorge silva'
p818
I15
ssg7
I20944
sg8
g796
ssS'ricardo quaresma'
p819
(dp820
g4
(dp821
S'pedro passos coelho'
p822
I14
sS'catarina furtado'
p823
I2
sS'jorge jesus'
p824
I453
sS'amaral dias'
p825
I18
sS'daniela pimenta'
p826
I8
sS'mario draghi'
p827
I0
ssg7
I9488
sg8
g819
ssg304
(dp828
g4
(dp829
S'bruno carvalho'
p830
I118
ssg7
I15212
sg8
g304
ssS'lu\xc3\xads amado'
p831
(dp832
g4
(dp833
S'ana gomes'
p834
I161
sS'jos\xc3\xa9 s\xc3\xb3crates'
p835
I1489
sS'barack obama'
p836
I190
ssg7
I7394
sg8
g831
ssS'jo\xc3\xa3o semedo'
p837
(dp838
g4
(dp839
S'pedro passos coelho'
p840
I933
sS'miguel relvas'
p841
I134
sS'catarina martins'
p842
I1559
ssg7
I10724
sg8
g837
ssg697
(dp843
g4
(dp844
S'j\xc3\xbalia pinheiro'
p845
I75
sS'jo\xc3\xa3o ferreira'
p846
I137
ssg7
I1448
sg8
g697
ssS'rui tavares'
p847
(dp848
g4
(dp849
S'daniel oliveira'
p850
I573
sS'ana drago'
p851
I472
sS'miguel poiares maduro'
p852
I57
ssg7
I8347
sg8
g847
ssS'sporting braga'
p853
(dp854
g4
(dp855
S'leonardo jardim'
p856
I3651
sS'v\xc3\xadtor pereira'
p857
I3098
sS'miguel relvas'
p858
I84
ssg7
I85459
sg8
g853
ssS'angelina jolie'
p859
(dp860
g4
(dp861
S'lu\xc3\xads marques mendes'
p862
I1
sS'ant\xc3\xb3nio guterres'
p863
I99
sS'marcelo rebelo'
p864
I3
ssg7
I2133
sg8
g859
ssS'daniel oliveira'
p865
(dp866
g4
(dp867
S'an\xc3\xadbal cavaco silva'
p868
I42
sS'ant\xc3\xb3nio capucho'
p869
I10
sg602
I316
sS'francisco lou\xc3\xa7\xc3\xa3'
p870
I330
sS'rui rio'
p871
I389
sg847
I573
ssg7
I6935
sg8
g865
ssS'rui machete'
p872
(dp873
g4
(dp874
S'jorge jesus'
p875
I17
sS'ana gomes'
p876
I34
sS'franquelim alves'
p877
I23
sg631
I1
sg322
I9
sS'pires lima'
p878
I649
ssg7
I7656
sg8
g872
ssg718
(dp879
g4
(dp880
g715
I89
sS'dur\xc3\xa3o barroso'
p881
I202
sS'marcelo rebelo'
p882
I723
sS'lu\xc3\xads morais sarmento'
p883
I80
sS'angelina jolie'
p884
I1
ssg7
I4481
sg8
g718
ssS'paul krugman'
p885
(dp886
g4
(dp887
S'paulo portas'
p888
I10
sS'jos\xc3\xa9 s\xc3\xb3crates'
p889
I46
sS'miguel poiares maduro'
p890
I1
ssg7
I1444
sg8
g885
ssg863
(dp891
g4
(dp892
g859
I99
sS'angela merkel'
p893
I268
sS'pedro passos coelho'
p894
I1056
ssg7
I12988
sg8
g863
ssg535
(dp895
g4
(dp896
S'angela merkel'
p897
I589
sS'm\xc3\xa1rio soares'
p898
I119
ssg7
I16845
sg8
g535
ssg130
(dp899
g4
(dp900
g127
I24
ssg7
I2214
sg8
g130
ssS'assun\xc3\xa7\xc3\xa3o cristas'
p901
(dp902
g4
(dp903
S'\xc3\xa1lvaro santos pereira'
p904
I587
sS'v\xc3\xadtor gaspar'
p905
I512
sS'maria lu\xc3\xads albuquerque'
p906
I440
sS'barack obama'
p907
I24
sS'paulo portas'
p908
I2975
ssg7
I16659
sg8
g901
ssS'b\xc3\xa1rbara guimar\xc3\xa3es'
p909
(dp910
g4
(dp911
S'manuel maria'
p912
I594
ssg7
I1544
sg8
g909
ssS'maria jos\xc3\xa9'
p913
(dp914
g4
(dp915
S'jorge jesus'
p916
I1165
sS'pedro passos coelho'
p917
I3086
sS'assun\xc3\xa7\xc3\xa3o esteves'
p918
I414
sS'jaime nogueira pinto'
p919
I90
ssg7
I82745
sg8
g913
ssS'bas\xc3\xadlio horta'
p920
(dp921
g4
(dp922
S'paulo portas'
p923
I214
sS'ant\xc3\xb3nio costa'
p924
I322
ssg7
I4011
sg8
g920
ssg282
(dp925
g4
(dp926
S'an\xc3\xadbal cavaco silva'
p927
I23
ssg7
I4149
sg8
g282
ssg283
(dp928
g4
(dp929
S'an\xc3\xadbal cavaco silva'
p930
I334
sS'fernando nobre'
p931
I1564
ssg7
I13656
sg8
g283
ssg826
(dp932
g4
(dp933
g819
I8
ssg7
I96
sg8
g826
ssS'm\xc3\xa1rio soares'
p934
(dp935
g4
(dp936
S'pedro passos coelho'
p937
I1989
sS'an\xc3\xadbal cavaco silva'
p938
I688
sS'agostinho almeida santos'
p939
I48
sS'isabel moreira'
p940
I186
sS'ant\xc3\xb3nio jos\xc3\xa9'
p941
I4608
sS'dilma rousseff'
p942
I119
sS'jos\xc3\xa9 s\xc3\xb3crates'
p943
I3225
sS'marcelo rebelo'
p944
I1253
sS'oliveira salazar'
p945
I137
sS'dur\xc3\xa3o barroso'
p946
I748
sS'angela merkel'
p947
I408
sS'manuel alegre'
p948
I2033
sg353
I5
ssg7
I20905
sg8
g934
ssg440
(dp949
g4
(dp950
S'ant\xc3\xb3nio costa'
p951
I568
ssg7
I1484
sg8
g440
ssg215
(dp952
g4
(dp953
S'jos\xc3\xa9 s\xc3\xb3crates'
p954
I222
sS'noronha do nascimento'
p955
I67
ssg7
I2058
sg8
g215
ssg290
(dp956
g4
(dp957
S'paulo mota'
p958
I674
sS'manuel ferreira leite'
p959
I78
ssg7
I2944
sg8
g290
ssS'manuel alegre'
p960
(dp961
g4
(dp962
S'an\xc3\xadbal cavaco silva'
p963
I477
sS'franquelim alves'
p964
I32
sS'agostinho almeida santos'
p965
I18
sS'm\xc3\xa1rio soares'
p966
I2033
sS'ant\xc3\xb3nio jos\xc3\xa9'
p967
I2489
ssg7
I14299
sg8
g960
ssg869
(dp968
g4
(dp969
S'pedro passos coelho'
p970
I380
sS'daniel oliveira'
p971
I10
sS'v\xc3\xadtor gaspar'
p972
I62
sS's\xc3\xa1 carneiro'
p973
I110
ssg7
I1893
sg8
g869
ssS'jo\xc3\xa3o vieira'
p974
(dp975
g4
(dp976
S'rui rangel'
p977
I129
ssg7
I26698
sg8
g974
ssg413
(dp978
g4
(dp979
S'isaltino morais'
p980
I0
sS'lu\xc3\xads filipe'
p981
I0
ssg7
I131
sg8
g413
ssg446
(dp982
g4
(dp983
S'ant\xc3\xb3nio costa'
p984
I1136
sg475
I16
ssg7
I15354
sg8
g446
ssg64
(dp985
g4
(dp986
S'judite sousa'
p987
I4
sS'pedro passos coelho'
p988
I83
ssg7
I450
sg8
g64
ssS'v\xc3\xadtor s\xc3\xa3o bento'
p989
(dp990
g4
(dp991
S'pedro passos coelho'
p992
I607
sS'an\xc3\xadbal cavaco silva'
p993
I81
ssg7
I3159
sg8
g989
ssg264
(dp994
g4
(dp995
S'an\xc3\xadbal cavaco silva'
p996
I159
sS'pedro passos coelho'
p997
I3644
sS'miguel relvas'
p998
I221
sS'bruno carvalho'
p999
I36
sS'assun\xc3\xa7\xc3\xa3o cristas'
p1000
I440
sS'carlos moedas'
p1001
I704
sS'neg\xc3\xb3cios estrangeiros'
p1002
I1327
sg711
I677
sS'cristina ferreira'
p1003
I33
sS'v\xc3\xadtor gaspar'
p1004
I2206
sS'pablo picasso'
p1005
I0
ssg7
I23017
sg8
g264
ssS'jo\xc3\xa3o cordeiro'
p1006
(dp1007
g4
(dp1008
S'ramalho eanes'
p1009
I50
ssg7
I4252
sg8
g1006
ssS'james bond'
p1010
(dp1011
g4
(dp1012
S'paulo portas'
p1013
I2
ssg7
I1798
sg8
g1010
ssS'jo\xc3\xa3o rendeiro'
p1014
(dp1015
g4
(dp1016
S'oliveira costa'
p1017
I103
ssg7
I1720
sg8
g1014
ssg63
(dp1018
g4
(dp1019
g59
I39
sS'isaltino morais'
p1020
I41
sg135
I759
ssg7
I4068
sg8
g63
ssg292
(dp1021
g4
(dp1022
g286
I88
sS'miguel relvas'
p1023
I71
sS'rui rio'
p1024
I113
sS'nelson mandela'
p1025
I4
sS'ant\xc3\xb3nio costa'
p1026
I523
ssg7
I2284
sg8
g292
ssS'\xc3\xa1lvaro santos pereira'
p1027
(dp1028
g4
(dp1029
g471
I891
sS'paulo portas'
p1030
I1271
sS'miguel relvas'
p1031
I764
sS'assun\xc3\xa7\xc3\xa3o cristas'
p1032
I587
sS'v\xc3\xadtor gaspar'
p1033
I1419
ssg7
I16392
sg8
g1027
ssS'leonardo jardim'
p1034
(dp1035
g4
(dp1036
g853
I3651
sS'v\xc3\xadtor pereira'
p1037
I658
sS'miguel relvas'
p1038
I0
ssg7
I19716
sg8
g1034
ssS'alexis tsipras'
p1039
(dp1040
g4
(dp1041
S'carlos alexandre'
p1042
I27
ssg7
I14021
sg8
g1039
ssg276
(dp1043
g4
(dp1044
S'an\xc3\xadbal cavaco silva'
p1045
I287
sS'pedro passos coelho'
p1046
I713
sS'francisco lopes'
p1047
I1564
ssg7
I8371
sg8
g276
ssS'domingos duarte lima'
p1048
(dp1049
g4
(dp1050
S'isaltino morais'
p1051
I15
sS'fel\xc3\xadcia cabrita'
p1052
I3
sS'oliveira costa'
p1053
I83
sS'dias loureiro'
p1054
I18
ssg7
I601
sg8
g1048
ssg786
(dp1055
g4
(dp1056
S'jurgen klinsmann'
p1057
I229
sg783
I0
ssg7
I2807
sg8
g786
ssS'amaral dias'
p1058
(dp1059
g4
(dp1060
S'ricardo quaresma'
p1061
I18
sS'paulo portas'
p1062
I337
ssg7
I6429
sg8
g1058
ssg412
(dp1063
g4
(dp1064
S'lu\xc3\xads filipe'
p1065
I60
sS'martin scorsese'
p1066
I0
sg422
I3
sS'pol pot'
p1067
I0
sS'domingos duarte lima'
p1068
I15
sS'dias loureiro'
p1069
I72
sS'oliveira costa'
p1070
I77
sS'fernando seara'
p1071
I41
ssg7
I2985
sg8
g412
ssS'wolfgang schauble'
p1072
(dp1073
g4
(dp1074
S'pedro passos coelho'
p1075
I208
sS'an\xc3\xadbal cavaco silva'
p1076
I6
sS'lu\xc3\xads godinho lopes'
p1077
I0
sS'ricardo salgado'
p1078
I14
sS'angela merkel'
p1079
I1535
sS'ant\xc3\xb3nio borges'
p1080
I4
ssg7
I6047
sg8
g1072
ssS'nova iorque'
p1081
(dp1082
g4
(dp1083
S'paulo portas'
p1084
I535
ssg7
I71734
sg8
g1081
ssg620
(dp1085
g4
(dp1086
g617
I72
ssg7
I51341
sg8
g620
ssg944
(dp1087
g4
(dp1088
S'an\xc3\xadbal cavaco silva'
p1089
I704
sS'm\xc3\xa1rio soares'
p1090
I1253
sS'lu\xc3\xads marques mendes'
p1091
I723
sS'pedro pinto'
p1092
I560
sS'dur\xc3\xa3o barroso'
p1093
I782
sS'ant\xc3\xb3nio costa'
p1094
I5785
sS'angelina jolie'
p1095
I3
ssg7
I25629
sg8
g944
ssS'manuel sampaio pimentel'
p1096
(dp1097
g4
(dp1098
S'rui moreira'
p1099
I186
ssg7
I432
sg8
g1096
ssS'silva ribeiro'
p1100
(dp1101
g4
(dp1102
S'joaquim rita'
p1103
I196
sS'rui santos'
p1104
I1658
sS'jorge baptista'
p1105
I175
ssg7
I19198
sg8
g1100
ssS'pedro silva pereira'
p1106
(dp1107
g4
(dp1108
S'pedro passos coelho'
p1109
I2218
sS'paulo rangel'
p1110
I182
sS'artur santos silva'
p1111
I449
sS'jos\xc3\xa9 s\xc3\xb3crates'
p1112
I1870
sS'parlamento europeu'
p1113
I335
ssg7
I16431
sg8
g1106
ssS'd. manuel clemente'
p1114
(dp1115
g4
(dp1116
S'an\xc3\xadbal cavaco silva'
p1117
I48
sS'pedro passos coelho'
p1118
I85
sS'ant\xc3\xb3nio jos\xc3\xa9'
p1119
I1524
ssg7
I4923
sg8
g1114
ssS'john lennon'
p1120
(dp1121
g4
(dp1122
S'michael jackson'
p1123
I96
ssg7
I1547
sg8
g1120
ssS'robbie williams'
p1124
(dp1125
g4
(dp1126
S'carlo ancelotti'
p1127
I0
ssg7
I871
sg8
g1124
ssg303
(dp1128
g4
(dp1129
S'bruno carvalho'
p1130
I1005
ssg7
I7298
sg8
g303
ssg583
(dp1131
g4
(dp1132
g580
I1
ssg7
I2532
sg8
g583
ssg955
(dp1133
g4
(dp1134
S'jos\xc3\xa9 s\xc3\xb3crates'
p1135
I623
sS'fernando pinto monteiro'
p1136
I67
ssg7
I1365
sg8
g955
ssg1092
(dp1137
g4
(dp1138
S'marcelo rebelo'
p1139
I560
ssg7
I27177
sg8
g1092
ssg539
(dp1140
g4
(dp1141
S'angela merkel'
p1142
I12
ssg7
I1791
sg8
g539
ssS'jos\xc3\xa9 cid'
p1143
(dp1144
g4
(dp1145
S'pedro santana lopes'
p1146
I19
ssg7
I6840
sg8
g1143
ssS'poul thomsen'
p1147
(dp1148
g4
(dp1149
S'pedro passos coelho'
p1150
I84
sS'abebe selassie'
p1151
I104
ssg7
I1546
sg8
g1147
ssg743
(dp1152
g4
(dp1153
g738
I10
ssg7
I6078
sg8
g743
ssg221
(dp1154
g4
(dp1155
S'jos\xc3\xa9 s\xc3\xb3crates'
p1156
I881
ssg7
I24594
sg8
g221
ssS'lu\xc3\xads mota soares'
p1157
(dp1158
g4
(dp1159
g635
I12
sS'alberto martins'
p1160
I125
ssg7
I2648
sg8
g1157
ssS'ricardo salgado'
p1161
(dp1162
g4
(dp1163
S'pedro passos coelho'
p1164
I923
sS'ant\xc3\xb3nio costa'
p1165
I833
sS'armando vara'
p1166
I100
sS'wolfgang schauble'
p1167
I14
sS'jos\xc3\xa9 maria del nido'
p1168
I0
sS'carlos alexandre'
p1169
I767
sS'fernando ulrich'
p1170
I833
sg344
I1349
sg112
I378
sS'ant\xc3\xb3nio borges'
p1171
I45
sS'nuno esp\xc3\xadrito santo'
p1172
I480
ssg7
I17537
sg8
g1161
ssg80
(dp1173
g4
(dp1174
g77
I41
ssg7
I8820
sg8
g80
ssS'irina shayk'
p1175
(dp1176
g4
(dp1177
S'jorge mendes'
p1178
I51
ssg7
I1980
sg8
g1175
ssg1160
(dp1179
g4
(dp1180
g1157
I125
sS'david carreira'
p1181
I39
ssg7
I8679
sg8
g1160
ssS'ant\xc3\xb3nio jos\xc3\xa9'
p1182
(dp1183
g4
(dp1184
S'pedro passos coelho'
p1185
I12444
sS'm\xc3\xa1rio soares'
p1186
I4608
sS'paulo portas'
p1187
I5751
sS'papa francisco'
p1188
I772
sg1114
I1524
sS'dolly parton'
p1189
I1
sS'jorge coelho'
p1190
I4014
sg960
I2489
sS'jorge jesus'
p1191
I1715
sg556
I425
sS'angela merkel'
p1192
I820
sS'ricardo s\xc3\xa1'
p1193
I932
sS'cristiano ronaldo'
p1194
I788
sS'jo\xc3\xa3o soares'
p1195
I4693
ssg7
I139027
sg8
g1182
ssg291
(dp1196
g4
(dp1197
S'mota amaral'
p1198
I674
sS'manuel ferreira leite'
p1199
I121
sS'jo\xc3\xa3o soares'
p1200
I1191
ssg7
I10534
sg8
g291
ssg811
(dp1201
g4
(dp1202
S'miguel relvas'
p1203
I1
ssg7
I1621
sg8
g811
ssS'jos\xc3\xa9 veiga sim\xc3\xa3o'
p1204
(dp1205
g4
(dp1206
S'ant\xc3\xb3nio vitorino'
p1207
I11
sS'te\xc3\xb3filo braga'
p1208
I0
sS'afonso costa'
p1209
I6
ssg7
I300
sg8
g1204
ssg675
(dp1210
g4
(dp1211
g670
I26
ssg7
I5390
sg8
g675
ssS'armando vara'
p1212
(dp1213
g4
(dp1214
S'ricardo salgado'
p1215
I100
sS'jos\xc3\xa9 s\xc3\xb3crates'
p1216
I1883
sS'carlos alexandre'
p1217
I615
sS'dias loureiro'
p1218
I90
ssg7
I4618
sg8
g1212
ssg250
(dp1219
g4
(dp1220
S'an\xc3\xadbal cavaco silva'
p1221
I41
ssg7
I10155
sg8
g250
ssS'marcelo caetano'
p1222
(dp1223
g4
(dp1224
S'paulo pereira'
p1225
I92
ssg7
I2355
sg8
g1222
ssS'enzo p\xc3\xa9rez'
p1226
(dp1227
g4
(dp1228
S'pedro passos coelho'
p1229
I4
ssg7
I9758
sg8
g1226
ssg220
(dp1230
g4
(dp1231
S'jos\xc3\xa9 s\xc3\xb3crates'
p1232
I140
ssg7
I4855
sg8
g220
ssg678
(dp1233
g4
(dp1234
S'assun\xc3\xa7\xc3\xa3o esteves'
p1235
I153
ssg7
I6675
sg8
g678
ssg701
(dp1236
g4
(dp1237
S'pedro passos coelho'
p1238
I1596
sS'dur\xc3\xa3o barroso'
p1239
I825
sS's\xc3\xa1 carneiro'
p1240
I368
sg1143
I19
sS'nicol\xc3\xa1s maduro'
p1241
I0
ssg7
I5983
sg8
g701
ssg1225
(dp1242
g4
(dp1243
g1222
I92
ssg7
I33677
sg8
g1225
ssg258
(dp1244
g4
(dp1245
g234
I10
sS'artur baptista'
p1246
I32
ssg7
I1793
sg8
g258
ssg134
(dp1247
g4
(dp1248
g131
I1
ssg7
I148
sg8
g134
ssg1193
(dp1249
g4
(dp1250
S'ant\xc3\xb3nio jos\xc3\xa9'
p1251
I932
ssg7
I11479
sg8
g1193
ssg124
(dp1252
g4
(dp1253
g1106
I182
sS'francisco assis'
p1254
I770
ssg7
I5697
sg8
g124
ssS'david neeleman'
p1255
(dp1256
g4
(dp1257
S'jorge jesus'
p1258
I16
ssg7
I2853
sg8
g1255
ssg1218
(dp1259
g4
(dp1260
S'pedro passos coelho'
p1261
I220
sS'an\xc3\xadbal cavaco silva'
p1262
I71
sS'isaltino morais'
p1263
I72
sg1212
I90
sS'marco ant\xc3\xb3nio'
p1264
I215
sS'oliveira costa'
p1265
I640
sg1048
I18
ssg7
I3600
sg8
g1218
ssg1123
(dp1266
g4
(dp1267
g1120
I96
ssg7
I3818
sg8
g1123
ssS'alfredo barroso'
p1268
(dp1269
g4
(dp1270
S'teresa caeiro'
p1271
I6
ssg7
I782
sg8
g1268
ssS'freddie mercury'
p1272
(dp1273
g4
(dp1274
S'paulo portas'
p1275
I5
ssg7
I445
sg8
g1272
ssS'jorge mendes'
p1276
(dp1277
g4
(dp1278
S'an\xc3\xadbal cavaco silva'
p1279
I103
sS'pedro passos coelho'
p1280
I406
sg1175
I51
sS'cristiano ronaldo'
p1281
I1446
ssg7
I13893
sg8
g1276
ssS'aung san'
p1282
(dp1283
g4
(dp1284
S'suu kyi'
p1285
I2132
ssg7
I2137
sg8
g1282
ssg611
(dp1286
g4
(dp1287
S'catarina furtado'
p1288
I46
sS'jo\xc3\xa3o bai\xc3\xa3o'
p1289
I53
ssg7
I8107
sg8
g611
ssg12
(dp1290
g4
(dp1291
S'pedro passos coelho'
p1292
I276
sS'maxi pereira'
p1293
I6481
sS'lu\xc3\xads filipe'
p1294
I5195
sS'oscar cardozo'
p1295
I2993
sS'bruno carvalho'
p1296
I3318
sS'catarina furtado'
p1297
I8
sS'fernando ulrich'
p1298
I26
sS'joe biden'
p1299
I4
sS'marco silva'
p1300
I2424
sS'ant\xc3\xb3nio jos\xc3\xa9'
p1301
I1715
sS'miguel relvas'
p1302
I76
sg9
I50
sS'rui machete'
p1303
I17
sg913
I1165
sg1255
I16
sg69
I66
sS'ant\xc3\xb3nio costa'
p1304
I1091
sS'ricardo quaresma'
p1305
I453
ssg7
I76552
sg8
g12
ssg812
(dp1306
g4
(dp1307
g796
I0
ssg7
I1278
sg8
g812
ssS'carlos abreu'
p1308
(dp1309
g4
(dp1310
S'v\xc3\xadtor gaspar'
p1311
I178
ssg7
I6022
sg8
g1308
ssS'sara carbonero'
p1312
(dp1313
g4
(dp1314
S'pedro passos coelho'
p1315
I1
sS'angela merkel'
p1316
I0
sS'iker casillas'
p1317
I624
ssg7
I796
sg8
g1312
ssg610
(dp1318
g4
(dp1319
S'jorge jesus'
p1320
I8
sS'ricardo quaresma'
p1321
I2
sS'jo\xc3\xa3o bai\xc3\xa3o'
p1322
I34
sS'fernando mendes'
p1323
I46
ssg7
I1295
sg8
g610
ssg1017
(dp1324
g4
(dp1325
S'an\xc3\xadbal cavaco silva'
p1326
I228
sS'isaltino morais'
p1327
I77
sg1014
I103
sS'domingos duarte lima'
p1328
I83
sS'pedro passos coelho'
p1329
I717
sS'edite estrela'
p1330
I23
sS'dias loureiro'
p1331
I640
ssg7
I24153
sg8
g1017
ssg1190
(dp1332
g4
(dp1333
S'ant\xc3\xb3nio costa'
p1334
I3197
sS'ant\xc3\xb3nio jos\xc3\xa9'
p1335
I4014
ssg7
I16840
sg8
g1190
ssg1240
(dp1336
g4
(dp1337
S'ant\xc3\xb3nio capucho'
p1338
I110
sS'pedro santana lopes'
p1339
I368
sS'paulo portas'
p1340
I528
sg55
I500
ssg7
I12722
sg8
g1240
ssg1009
(dp1341
g4
(dp1342
g1006
I50
ssg7
I4179
sg8
g1009
ssg940
(dp1343
g4
(dp1344
S'm\xc3\xa1rio soares'
p1345
I186
ssg7
I3264
sg8
g940
ssg142
(dp1346
g4
(dp1347
S'pedro passos coelho'
p1348
I58
sg139
I0
ssg7
I1294
sg8
g142
ssg403
(dp1349
g4
(dp1350
g400
I1148
sS'pedro passos coelho'
p1351
I835
sg1100
I1658
sS'joaquim rita'
p1352
I295
sS'jorge baptista'
p1353
I560
ssg7
I29857
sg8
g403
ssg333
(dp1354
g4
(dp1355
S'paulo portas'
p1356
I13082
sS'maria lu\xc3\xads albuquerque'
p1357
I1327
sg330
I1
ssg7
I78930
sg8
g333
ssS'lu\xc3\xads figo'
p1358
(dp1359
g4
(dp1360
S'lu\xc3\xads godinho lopes'
p1361
I52
sS'jesualdo ferreira'
p1362
I24
ssg7
I6977
sg8
g1358
ssg1099
(dp1363
g4
(dp1364
S'marco ant\xc3\xb3nio'
p1365
I944
sS'lu\xc3\xads filipe'
p1366
I1994
sg771
I106
sS'quim barreiros'
p1367
I25
sg1096
I186
ssg7
I20119
sg8
g1099
ssg485
(dp1368
g4
(dp1369
S'ricardo costa'
p1370
I35
ssg7
I2767
sg8
g485
ssg1189
(dp1371
g4
(dp1372
g1182
I1
ssg7
I153
sg8
g1189
ssg447
(dp1373
g4
(dp1374
g434
I1450
sS'rui machete'
p1375
I34
sg831
I161
ssg7
I10038
sg8
g447
ssg364
(dp1376
g4
(dp1377
g361
I212
ssg7
I8280
sg8
g364
ssS'v\xc3\xadtor gaspar'
p1378
(dp1379
g4
(dp1380
S'pedro passos coelho'
p1381
I4619
sS'\xc3\xa1lvaro santos pereira'
p1382
I1419
sS'paulo portas'
p1383
I3547
sg1308
I178
sS'ant\xc3\xb3nio capucho'
p1384
I62
sS'maria lu\xc3\xads albuquerque'
p1385
I2206
sS'lionel messi'
p1386
I2
sS'jer\xc3\xb3nimo sousa'
p1387
I388
sg757
I1035
sg375
I1458
sS'miguel relvas'
p1388
I1236
sS'carlos moedas'
p1389
I795
sg592
I0
sS'angela merkel'
p1390
I280
sg901
I512
sS'oprah winfrey'
p1391
I1
sS'ant\xc3\xb3nio borges'
p1392
I291
sg326
I14
sS'cristiano ronaldo'
p1393
I29
ssg7
I30797
sg8
g1378
ssg1172
(dp1394
g4
(dp1395
S'carlos slim'
p1396
I3
sS'v\xc3\xadtor bento'
p1397
I107
sS'ricardo salgado'
p1398
I480
ssg7
I9125
sg8
g1172
ssg1381
(dp1399
g4
(dp1400
g524
I2158
sg934
I1989
sS'f\xc3\xa1bio coentr\xc3\xa3o'
p1401
I28
sS'jo\xc3\xa3o semedo'
p1402
I933
sS'ricardo salgado'
p1403
I923
sS'lou reed'
p1404
I2
sS'papa francisco'
p1405
I285
sg1072
I208
sg516
I40
sS'david beckham'
p1406
I1
sS'edson athayde'
p1407
I6
sS'ant\xc3\xb3nio jos\xc3\xa9'
p1408
I12444
sS'manchester united'
p1409
I125
sS'rafa ben\xc3\xadtez'
p1410
I1
sS'paulo bento'
p1411
I776
sS'dias loureiro'
p1412
I220
sg761
I268
sS'ant\xc3\xb3nio borges'
p1413
I569
sS'assun\xc3\xa7\xc3\xa3o esteves'
p1414
I1505
sS'pedro silva pereira'
p1415
I2218
sg544
I460
sg989
I607
sS'ant\xc3\xb3nio capucho'
p1416
I380
sg194
I0
sS'marco ant\xc3\xb3nio'
p1417
I2944
sS'jorge mendes'
p1418
I406
sS'carlos moedas'
p1419
I1297
sS'judite sousa'
p1420
I203
sS'jer\xc3\xb3nimo sousa'
p1421
I3015
sS'jos\xc3\xa9 s\xc3\xb3crates'
p1422
I9174
sS'rui reininho'
p1423
I6
sS'd. manuel clemente'
p1424
I85
sg1378
I4619
sS'vicente jorge silva'
p1425
I68
sg1226
I4
sS'paulo baldaia'
p1426
I83
sS'an\xc3\xadbal cavaco silva'
p1427
I2751
sS'margaret thatcher'
p1428
I58
sS'paulo portas'
p1429
I12702
sS'ant\xc3\xb3nio guterres'
p1430
I1056
sg81
I138
sg787
I459
sg309
I1116
sS'maria lu\xc3\xads albuquerque'
p1431
I3644
sS'manuel ferreira leite'
p1432
I273
sS'jorge jesus'
p1433
I276
sg625
I11
sS'oliveira salazar'
p1434
I60
sg426
I0
sg430
I43
sS'ant\xc3\xb3nio costa'
p1435
I10829
sS'alvaro pereira'
p1436
I1785
sS'cristiano ronaldo'
p1437
I186
sS'alex ferguson'
p1438
I7
sg100
I7
sS'miguel relvas'
p1439
I3870
sg1312
I1
sS'ricardo quaresma'
p1440
I14
sS'rui santos'
p1441
I835
sS'oliveira costa'
p1442
I717
sS'pedro santana lopes'
p1443
I1596
sS'fernando nobre'
p1444
I713
sg1147
I84
sS'alberto jo\xc3\xa3o jardim'
p1445
I2129
sS'maria jos\xc3\xa9'
p1446
I3086
sS'dur\xc3\xa3o barroso'
p1447
I3285
sS'matthew mcconaughey'
p1448
I0
sS'rui gomes'
p1449
I279
ssg7
I103673
sg8
g1381
ssg795
(dp1450
g4
(dp1451
S'xanana gusm\xc3\xa3o'
p1452
I0
ssg7
I1649
sg8
g795
ssg601
(dp1453
g4
(dp1454
g598
I40
ssg7
I4383
sg8
g601
ssg1169
(dp1455
g4
(dp1456
S'armando vara'
p1457
I615
sg1039
I27
sS'jos\xc3\xa9 s\xc3\xb3crates'
p1458
I2759
sg1161
I767
ssg7
I13679
sg8
g1169
ssS'benni mccarthy'
p1459
(dp1460
g4
(dp1461
S'al pacino'
p1462
I4
sS'lu\xc3\xads filipe'
p1463
I0
ssg7
I187
sg8
g1459
ssg1281
(dp1464
g4
(dp1465
S'an\xc3\xadbal cavaco silva'
p1466
I248
sS'pedro passos coelho'
p1467
I186
sS'paulo portas'
p1468
I362
sS'miguel relvas'
p1469
I64
sg1276
I1446
sg198
I9233
sS'ant\xc3\xb3nio jos\xc3\xa9'
p1470
I788
sg520
I2965
sS'bruno alves'
p1471
I3358
sg31
I511
sS'paulo bento'
p1472
I8008
sg540
I1386
sS'v\xc3\xadtor gaspar'
p1473
I29
sS'sim\xc3\xa3o sabrosa'
p1474
I536
sS'rui patr\xc3\xadcio'
p1475
I2746
ssg7
I74259
sg8
g1281
ssg728
(dp1476
g4
(dp1477
S'bruno carvalho'
p1478
I520
sS'wolfgang schauble'
p1479
I0
sg1358
I52
sS'rui patr\xc3\xadcio'
p1480
I90
sg725
I45
ssg7
I2725
sg8
g728
ssS'abebe selassie'
p1481
(dp1482
g4
(dp1483
S'paulo portas'
p1484
I29
sS'arm\xc3\xa9nio carlos'
p1485
I14
sS'poul thomsen'
p1486
I104
sS'paulo bento'
p1487
I5
ssg7
I1057
sg8
g1481
ssS'filipe nyusi'
p1488
(dp1489
g4
(dp1490
S'paulo portas'
p1491
I101
ssg7
I2345
sg8
g1488
ssS'pedro lomba'
p1492
(dp1493
g4
(dp1494
S'miguel poiares maduro'
p1495
I173
ssg7
I1714
sg8
g1492
ssg588
(dp1496
g4
(dp1497
S'pedro passos coelho'
p1498
I3285
sS'm\xc3\xa1rio soares'
p1499
I748
sS'lu\xc3\xads marques mendes'
p1500
I202
sS'ant\xc3\xb3nio costa'
p1501
I1186
sS'bruno carvalho'
p1502
I59
sS'an\xc3\xadbal cavaco silva'
p1503
I458
sS'pedro santana lopes'
p1504
I825
sS'ricardo costa'
p1505
I175
sg585
I340
sS'marcelo rebelo'
p1506
I782
sS'luciana abreu'
p1507
I1
ssg7
I28833
sg8
g588
ssg770
(dp1508
g4
(dp1509
S'angela merkel'
p1510
I1
sg765
I268
ssg7
I3916
sg8
g770
ssS'fran\xc3\xa7ois hollande'
p1511
(dp1512
g4
(dp1513
S'paulo portas'
p1514
I128
ssg7
I18212
sg8
g1511
ssg590
(dp1515
g4
(dp1516
S'vitor const\xc3\xa2ncio'
p1517
I1
ssg7
I4121
sg8
g590
ssg1391
(dp1518
g4
(dp1519
S'v\xc3\xadtor gaspar'
p1520
I1
ssg7
I1502
sg8
g1391
ssg444
(dp1521
g4
(dp1522
S'an\xc3\xadbal cavaco silva'
p1523
I201
sg621
I948
sS'jer\xc3\xb3nimo sousa'
p1524
I1651
sS'ant\xc3\xb3nio costa'
p1525
I3142
sg837
I1559
ssg7
I15351
sg8
g444
ssg209
(dp1526
g4
(dp1527
S'jos\xc3\xa9 s\xc3\xb3crates'
p1528
I238
sg974
I129
ssg7
I2348
sg8
g209
ssg1417
(dp1529
g4
(dp1530
S'pedro passos coelho'
p1531
I2944
sS'rui moreira'
p1532
I944
sS'carlos c\xc3\xa9sar'
p1533
I484
sS'dias loureiro'
p1534
I215
ssg7
I44178
sg8
g1417
ssg1352
(dp1535
g4
(dp1536
S'silva ribeiro'
p1537
I196
sS'rui santos'
p1538
I295
sS'jorge baptista'
p1539
I46
ssg7
I2153
sg8
g1352
ssg1005
(dp1540
g4
(dp1541
S'maria lu\xc3\xads albuquerque'
p1542
I0
ssg7
I761
sg8
g1005
ssg89
(dp1543
g4
(dp1544
g85
I1
ssg7
I633
sg8
g89
ssg1423
(dp1545
g4
(dp1546
S'pedro passos coelho'
p1547
I6
ssg7
I947
sg8
g1423
ssg691
(dp1548
g4
(dp1549
S'pedro passos coelho'
p1550
I7
sS'manchester united'
p1551
I7683
ssg7
I9172
sg8
g691
ssS'barack obama'
p1552
(dp1553
g4
(dp1554
S'an\xc3\xadbal cavaco silva'
p1555
I278
sS'paulo portas'
p1556
I352
sS'v\xc3\xadtor pereira'
p1557
I26
sg613
I2
sS'lu\xc3\xads amado'
p1558
I190
sS'assun\xc3\xa7\xc3\xa3o cristas'
p1559
I24
ssg7
I46743
sg8
g1552
ssg945
(dp1560
g4
(dp1561
S'pedro passos coelho'
p1562
I60
sS'm\xc3\xa1rio soares'
p1563
I137
ssg7
I1996
sg8
g945
ssg755
(dp1564
g4
(dp1565
S'jorge jesus'
p1566
I4
sg751
I1
ssg7
I1980
sg8
g755
ssg490
(dp1567
g4
(dp1568
g487
I11
ssg7
I35258
sg8
g490
ssg1195
(dp1569
g4
(dp1570
S'paulo mota'
p1571
I1191
sS'arm\xc3\xa9nio carlos'
p1572
I236
sS'ant\xc3\xb3nio jos\xc3\xa9'
p1573
I4693
ssg7
I24839
sg8
g1195
ssg871
(dp1574
g4
(dp1575
g865
I389
sS'paulo portas'
p1576
I726
sS'miguel relvas'
p1577
I234
sS'jos\xc3\xa9 pacheco pereira'
p1578
I113
sS'ant\xc3\xb3nio costa'
p1579
I2036
ssg7
I24559
sg8
g871
ssg702
(dp1580
g4
(dp1581
S'paulo portas'
p1582
I466
sS'paul krugman'
p1583
I1
sg1492
I173
sS'rui tavares'
p1584
I57
sS'nicol\xc3\xa1s maduro'
p1585
I3
sg779
I0
ssg7
I5830
sg8
g702
ssg569
(dp1586
g4
(dp1587
g566
I71
ssg7
I11352
sg8
g569
ssg321
(dp1588
g4
(dp1589
g318
I0
ssg7
I316
sg8
g321
ssS'nuno crato'
p1590
(dp1591
g4
(dp1592
S'v\xc3\xadtor pereira'
p1593
I273
ssg7
I16445
sg8
g1590
ssg1396
(dp1594
g4
(dp1595
S'nuno esp\xc3\xadrito santo'
p1596
I3
ssg7
I851
sg8
g1396
ssS'andr\xc3\xa9 villas-boas'
p1597
(dp1598
g4
(dp1599
S'raul meireles'
p1600
I692
ssg7
I24408
sg8
g1597
ssS'paulo portas'
p1601
(dp1602
g4
(dp1603
S'pedro passos coelho'
p1604
I12702
sS'f\xc3\xa1bio coentr\xc3\xa3o'
p1605
I61
sg747
I55
sg15
I1554
sg334
I242
sg1081
I535
sS'jer\xc3\xb3nimo sousa'
p1606
I2340
sg144
I780
sS'ant\xc3\xb3nio jos\xc3\xa9'
p1607
I5751
sS'neg\xc3\xb3cios estrangeiros'
p1608
I13082
sg1481
I29
sg1272
I5
sS'jos\xc3\xa9 s\xc3\xb3crates'
p1609
I4581
sg225
I49
sS'v\xc3\xadtor gaspar'
p1610
I3547
sS'pires lima'
p1611
I1879
sS'an\xc3\xadbal cavaco silva'
p1612
I888
sg885
I10
sg791
I20
sg703
I101
sg1010
I2
sS'barack obama'
p1613
I352
sS'assun\xc3\xa7\xc3\xa3o cristas'
p1614
I2975
sS'alvaro pereira'
p1615
I1354
sS'cristiano ronaldo'
p1616
I362
sg1027
I1271
sS'miguel relvas'
p1617
I1299
sg730
I397
sg920
I214
sg1488
I101
sS'rui rio'
p1618
I726
sg1058
I337
sS'miguel poiares maduro'
p1619
I466
sS's\xc3\xa1 carneiro'
p1620
I528
sg1511
I128
ssg7
I60693
sg8
g1601
ssg233
(dp1621
g4
(dp1622
S'pedro passos coelho'
p1623
I68
sg480
I236
sg229
I15
sS'miguel relvas'
p1624
I15
ssg7
I2700
sg8
g233
ssg1127
(dp1625
g4
(dp1626
g1124
I0
ssg7
I9337
sg8
g1127
ssg1246
(dp1627
g4
(dp1628
S'nicolau santos'
p1629
I32
ssg7
I1156
sg8
g1246
ssg1448
(dp1630
g4
(dp1631
S'pedro passos coelho'
p1632
I0
ssg7
I435
sg8
g1448
ssg1406
(dp1633
g4
(dp1634
S'pedro passos coelho'
p1635
I1
ssg7
I3487
sg8
g1406
ssg161
(dp1636
g4
(dp1637
S'miguel relvas'
p1638
I451
sS's\xc3\xb3nia ara\xc3\xbajo'
p1639
I31
sg1590
I273
sg1034
I658
sS'lu\xc3\xads filipe'
p1640
I1397
sg1552
I26
sS'paulo bento'
p1641
I620
sS'sporting braga'
p1642
I3098
ssg7
I37098
sg8
g161
ssg612
(dp1643
g4
(dp1644
g607
I0
sg551
I0
ssg7
I679
sg8
g612
ssg1057
(dp1645
g4
(dp1646
S'joachim low'
p1647
I229
ssg7
I1114
sg8
g1057
ssg155
(dp1648
g4
(dp1649
g151
I10
sS'ant\xc3\xb3nio costa'
p1650
I341
ssg7
I1731
sg8
g155
ssg1207
(dp1651
g4
(dp1652
g1204
I11
sg570
I16
sg385
I1092
ssg7
I8326
sg8
g1207
ssS'jos\xc3\xa9 mariano gago'
p1653
(dp1654
g4
(dp1655
S'osama bin laden'
p1656
I1
ssg7
I1049
sg8
g1653
ssg54
(dp1657
g4
(dp1658
S'an\xc3\xadbal cavaco silva'
p1659
I170
sS'daniel oliveira'
p1660
I330
sg51
I137
ssg7
I11654
sg8
g54
ssg279
(dp1661
g4
(dp1662
S'an\xc3\xadbal cavaco silva'
p1663
I58
sS'jorge sampaio'
p1664
I216
sS'jos\xc3\xa9 pacheco pereira'
p1665
I4
ssg7
I6523
sg8
g279
ssg126
(dp1666
g4
(dp1667
S'nuno melo'
p1668
I715
sS'pedro silva pereira'
p1669
I335
sg121
I976
ssg7
I57456
sg8
g126
ssg710
(dp1670
g4
(dp1671
g707
I6
ssg7
I123
sg8
g710
ssg306
(dp1672
g4
(dp1673
S'bruno carvalho'
p1674
I757
ssg7
I1229
sg8
g306
ssg656
(dp1675
g4
(dp1676
g653
I99
ssg7
I832
sg8
g656
ssg1474
(dp1677
g4
(dp1678
S'rui patr\xc3\xadcio'
p1679
I58
sS'cristiano ronaldo'
p1680
I536
ssg7
I2771
sg8
g1474
ssg878
(dp1681
g4
(dp1682
S'an\xc3\xadbal cavaco silva'
p1683
I139
sS'paulo portas'
p1684
I1879
sS'bruno carvalho'
p1685
I115
sg640
I62
sS'hillary clinton'
p1686
I7
sg872
I649
ssg7
I15961
sg8
g878
ssg1656
(dp1687
g4
(dp1688
g1653
I1
sg181
I11
ssg7
I2585
sg8
g1656
ssg261
(dp1689
g4
(dp1690
S'an\xc3\xadbal cavaco silva'
p1691
I0
ssg7
I3916
sg8
g261
ssg1353
(dp1692
g4
(dp1693
S'silva ribeiro'
p1694
I175
sS'joaquim rita'
p1695
I46
sS'rui santos'
p1696
I560
ssg7
I3832
sg8
g1353
ssg451
(dp1697
g4
(dp1698
S'ant\xc3\xb3nio costa'
p1699
I250
ssg7
I9174
sg8
g451
ssg216
(dp1700
g4
(dp1701
S'jos\xc3\xa9 s\xc3\xb3crates'
p1702
I18
sS'whitney houston'
p1703
I1
ssg7
I14371
sg8
g216
ssg193
(dp1704
g4
(dp1705
g190
I201
ssg7
I865
sg8
g193
ssg1639
(dp1706
g4
(dp1707
S'v\xc3\xadtor pereira'
p1708
I31
ssg7
I719
sg8
g1639
ssg1404
(dp1709
g4
(dp1710
S'pedro passos coelho'
p1711
I2
ssg7
I1001
sg8
g1404
ssg277
(dp1712
g4
(dp1713
S'an\xc3\xadbal cavaco silva'
p1714
I9
ssg7
I441
sg8
g277
ssg1605
(dp1715
g4
(dp1716
S'pedro passos coelho'
p1717
I28
sg1601
I61
ssg7
I17985
sg8
g1605
ssg666
(dp1718
g4
(dp1719
S'edson athayde'
p1720
I11
ssg7
I630
sg8
g666
ssg1066
(dp1721
g4
(dp1722
S'isaltino morais'
p1723
I0
ssg7
I1060
sg8
g1066
ssg1295
(dp1724
g4
(dp1725
S'jorge jesus'
p1726
I2993
ssg7
I7307
sg8
g1295
ssg912
(dp1727
g4
(dp1728
g909
I594
ssg7
I34119
sg8
g912
ssg1271
(dp1729
g4
(dp1730
g1268
I6
ssg7
I1387
sg8
g1271
ssg1052
(dp1731
g4
(dp1732
S'domingos duarte lima'
p1733
I3
ssg7
I407
sg8
g1052
ssg1462
(dp1734
g4
(dp1735
g1459
I4
sS'lu\xc3\xads filipe'
p1736
I2
ssg7
I381
sg8
g1462
ssg450
(dp1737
g4
(dp1738
S'ant\xc3\xb3nio costa'
p1739
I357
ssg7
I1404
sg8
g450
ssg883
(dp1740
g4
(dp1741
S'lu\xc3\xads marques mendes'
p1742
I80
ssg7
I1318
sg8
g883
ssg266
(dp1743
g4
(dp1744
S'an\xc3\xadbal cavaco silva'
p1745
I27
ssg7
I3822
sg8
g266
ssg1285
(dp1746
g4
(dp1747
g1282
I2132
ssg7
I2435
sg8
g1285
ssg1600
(dp1748
g4
(dp1749
S'an\xc3\xadbal cavaco silva'
p1750
I1
sg1597
I692
ssg7
I9578
sg8
g1600
ssg272
(dp1751
g4
(dp1752
S'an\xc3\xadbal cavaco silva'
p1753
I161
sS'marco ant\xc3\xb3nio'
p1754
I484
ssg7
I17360
sg8
g272
ssg1686
(dp1755
g4
(dp1756
S'pires lima'
p1757
I7
ssg7
I7750
sg8
g1686
ssg278
(dp1758
g4
(dp1759
S'an\xc3\xadbal cavaco silva'
p1760
I5
sS'jer\xc3\xb3nimo sousa'
p1761
I25
sS'rui machete'
p1762
I23
sS'manuel alegre'
p1763
I32
ssg7
I1106
sg8
g278
ssg280
(dp1764
g4
(dp1765
S'an\xc3\xadbal cavaco silva'
p1766
I15
sS'oliveira costa'
p1767
I23
ssg7
I1562
sg8
g280
ssg679
(dp1768
g4
(dp1769
S'assun\xc3\xa7\xc3\xa3o esteves'
p1770
I174
ssg7
I31112
sg8
g679
ss.